
avg-main-riscv:     file format elf32-littleriscv


Disassembly of section .text:

00010000 <_ftext>:
   10000:	auipc	x3,0xd
   10004:	addi	x3,x3,1456 # 1d5b0 <_gp>
   10008:	auipc	x5,0xd
   1000c:	addi	x5,x5,-480 # 1ce28 <_PathLocale>
   10010:	auipc	x6,0xd
   10014:	addi	x6,x6,-368 # 1cea0 <_end>
   10018:	sw	x0,0(x5)
   1001c:	addi	x5,x5,4
   10020:	bltu	x5,x6,10018 <_ftext+0x18>
   10024:	auipc	x10,0x0
   10028:	addi	x10,x10,392 # 101ac <__libc_fini_array>
   1002c:	jal	x1,10168 <atexit>
   10030:	jal	x1,1020c <__libc_init_array>
   10034:	lw	x10,0(x2)
   10038:	addi	x11,x2,4
   1003c:	addi	x12,x0,0
   10040:	jal	x1,1ac1c <main>
   10044:	jal	x0,1017c <exit>

00010048 <_fini>:
   10048:	jalr	x0,x1,0

0001004c <deregister_tm_clones>:
   1004c:	addi	x14,x3,-2048 # 1cdb0 <_edata>
   10050:	addi	x15,x3,-2045 # 1cdb3 <_edata+0x3>
   10054:	sub	x15,x15,x14
   10058:	addi	x14,x0,6
   1005c:	bgeu	x14,x15,10074 <deregister_tm_clones+0x28>
   10060:	lui	x6,0x0
   10064:	addi	x6,x6,0 # 0 <_ftext-0x10000>
   10068:	beq	x6,x0,10074 <deregister_tm_clones+0x28>
   1006c:	addi	x10,x3,-2048 # 1cdb0 <_edata>
   10070:	jalr	x0,x6,0
   10074:	jalr	x0,x1,0

00010078 <register_tm_clones>:
   10078:	addi	x11,x3,-2048 # 1cdb0 <_edata>
   1007c:	addi	x15,x3,-2048 # 1cdb0 <_edata>
   10080:	sub	x15,x15,x11
   10084:	srai	x15,x15,0x2
   10088:	srli	x11,x15,0x1f
   1008c:	add	x11,x11,x15
   10090:	srai	x11,x11,0x1
   10094:	beq	x11,x0,100ac <register_tm_clones+0x34>
   10098:	lui	x6,0x0
   1009c:	addi	x6,x6,0 # 0 <_ftext-0x10000>
   100a0:	beq	x6,x0,100ac <register_tm_clones+0x34>
   100a4:	addi	x10,x3,-2048 # 1cdb0 <_edata>
   100a8:	jalr	x0,x6,0
   100ac:	jalr	x0,x1,0

000100b0 <__do_global_dtors_aux>:
   100b0:	addi	x2,x2,-16
   100b4:	sw	x8,8(x2)
   100b8:	lbu	x15,-1896(x3) # 1ce48 <completed.3084>
   100bc:	sw	x1,12(x2)
   100c0:	bne	x15,x0,100ec <__do_global_dtors_aux+0x3c>
   100c4:	jal	x1,1004c <deregister_tm_clones>
   100c8:	lui	x15,0x0
   100cc:	addi	x15,x15,0 # 0 <_ftext-0x10000>
   100d0:	beq	x15,x0,100e4 <__do_global_dtors_aux+0x34>
   100d4:	lui	x10,0x1b
   100d8:	addi	x10,x10,568 # 1b238 <__fini_array_end>
   100dc:	auipc	x6,0xffff0
   100e0:	jalr	x1,x6,-220 # 0 <_ftext-0x10000>
   100e4:	addi	x15,x0,1
   100e8:	sb	x15,-1896(x3) # 1ce48 <completed.3084>
   100ec:	lw	x1,12(x2)
   100f0:	lw	x8,8(x2)
   100f4:	addi	x2,x2,16
   100f8:	jalr	x0,x1,0

000100fc <frame_dummy>:
   100fc:	addi	x2,x2,-16
   10100:	lui	x15,0x0
   10104:	sw	x1,12(x2)
   10108:	addi	x15,x15,0 # 0 <_ftext-0x10000>
   1010c:	beq	x15,x0,10124 <frame_dummy+0x28>
   10110:	lui	x10,0x1b
   10114:	addi	x11,x3,-1892 # 1ce4c <object.3089>
   10118:	addi	x10,x10,568 # 1b238 <__fini_array_end>
   1011c:	auipc	x6,0xffff0
   10120:	jalr	x1,x6,-284 # 0 <_ftext-0x10000>
   10124:	lui	x15,0x1c
   10128:	addi	x10,x15,1256 # 1c4e8 <__JCR_END__>
   1012c:	lw	x15,0(x10)
   10130:	bne	x15,x0,10140 <frame_dummy+0x44>
   10134:	lw	x1,12(x2)
   10138:	addi	x2,x2,16
   1013c:	jal	x0,10078 <register_tm_clones>
   10140:	lui	x15,0x0
   10144:	addi	x15,x15,0 # 0 <_ftext-0x10000>
   10148:	beq	x15,x0,10134 <frame_dummy+0x38>
   1014c:	jalr	x1,x15,0
   10150:	jal	x0,10134 <frame_dummy+0x38>

00010154 <avg>:
   10154:	add	x10,x10,x11
   10158:	srli	x15,x10,0x1f
   1015c:	add	x10,x15,x10
   10160:	srai	x10,x10,0x1
   10164:	jalr	x0,x1,0

00010168 <atexit>:
   10168:	addi	x11,x10,0
   1016c:	addi	x13,x0,0
   10170:	addi	x12,x0,0
   10174:	addi	x10,x0,0
   10178:	jal	x0,12240 <__register_exitproc>

0001017c <exit>:
   1017c:	addi	x2,x2,-16
   10180:	addi	x11,x0,0
   10184:	sw	x8,8(x2)
   10188:	sw	x1,12(x2)
   1018c:	addi	x8,x10,0
   10190:	jal	x1,12348 <__call_exitprocs>
   10194:	lw	x10,-2044(x3) # 1cdb4 <_global_impure_ptr>
   10198:	lw	x15,60(x10)
   1019c:	beq	x15,x0,101a4 <exit+0x28>
   101a0:	jalr	x1,x15,0
   101a4:	addi	x10,x8,0
   101a8:	jal	x1,18f18 <_exit>

000101ac <__libc_fini_array>:
   101ac:	addi	x2,x2,-16
   101b0:	sw	x8,8(x2)
   101b4:	sw	x9,4(x2)
   101b8:	lui	x8,0x1b
   101bc:	lui	x9,0x1b
   101c0:	addi	x9,x9,564 # 1b234 <__init_array_end>
   101c4:	addi	x8,x8,568 # 1b238 <__fini_array_end>
   101c8:	sub	x8,x8,x9
   101cc:	srai	x8,x8,0x2
   101d0:	slli	x15,x8,0x2
   101d4:	addi	x15,x15,-4
   101d8:	sw	x1,12(x2)
   101dc:	add	x9,x15,x9
   101e0:	beq	x8,x0,101f8 <__libc_fini_array+0x4c>
   101e4:	lw	x15,0(x9)
   101e8:	addi	x8,x8,-1
   101ec:	addi	x9,x9,-4
   101f0:	jalr	x1,x15,0
   101f4:	bne	x8,x0,101e4 <__libc_fini_array+0x38>
   101f8:	lw	x1,12(x2)
   101fc:	lw	x8,8(x2)
   10200:	lw	x9,4(x2)
   10204:	addi	x2,x2,16
   10208:	jal	x0,10048 <_fini>

0001020c <__libc_init_array>:
   1020c:	addi	x2,x2,-16
   10210:	sw	x8,8(x2)
   10214:	lui	x15,0x1b
   10218:	lui	x8,0x1b
   1021c:	sw	x18,0(x2)
   10220:	addi	x15,x15,560 # 1b230 <_etext>
   10224:	addi	x18,x8,560 # 1b230 <_etext>
   10228:	sub	x18,x15,x18
   1022c:	sw	x9,4(x2)
   10230:	sw	x1,12(x2)
   10234:	srai	x18,x18,0x2
   10238:	addi	x8,x8,560
   1023c:	addi	x9,x0,0
   10240:	beq	x18,x0,10258 <__libc_init_array+0x4c>
   10244:	lw	x15,0(x8)
   10248:	addi	x9,x9,1
   1024c:	addi	x8,x8,4
   10250:	jalr	x1,x15,0
   10254:	bne	x18,x9,10244 <__libc_init_array+0x38>
   10258:	jal	x1,10048 <_fini>
   1025c:	lui	x8,0x1b
   10260:	lui	x15,0x1b
   10264:	addi	x18,x8,560 # 1b230 <_etext>
   10268:	addi	x15,x15,564 # 1b234 <__init_array_end>
   1026c:	sub	x18,x15,x18
   10270:	srai	x18,x18,0x2
   10274:	addi	x8,x8,560
   10278:	addi	x9,x0,0
   1027c:	beq	x18,x0,10294 <__libc_init_array+0x88>
   10280:	lw	x15,0(x8)
   10284:	addi	x9,x9,1
   10288:	addi	x8,x8,4
   1028c:	jalr	x1,x15,0
   10290:	bne	x18,x9,10280 <__libc_init_array+0x74>
   10294:	lw	x1,12(x2)
   10298:	lw	x8,8(x2)
   1029c:	lw	x9,4(x2)
   102a0:	lw	x18,0(x2)
   102a4:	addi	x2,x2,16
   102a8:	jalr	x0,x1,0

000102ac <_printf_r>:
   102ac:	addi	x2,x2,-64
   102b0:	sw	x12,40(x2)
   102b4:	sw	x13,44(x2)
   102b8:	sw	x15,52(x2)
   102bc:	sw	x14,48(x2)
   102c0:	sw	x16,56(x2)
   102c4:	sw	x17,60(x2)
   102c8:	addi	x12,x11,0
   102cc:	lw	x11,8(x10)
   102d0:	addi	x15,x2,40
   102d4:	addi	x13,x15,0
   102d8:	sw	x1,28(x2)
   102dc:	sw	x15,12(x2)
   102e0:	jal	x1,10340 <_vfprintf_r>
   102e4:	lw	x1,28(x2)
   102e8:	addi	x2,x2,64
   102ec:	jalr	x0,x1,0

000102f0 <printf>:
   102f0:	lw	x6,-2040(x3) # 1cdb8 <_impure_ptr>
   102f4:	addi	x2,x2,-64
   102f8:	sw	x12,40(x2)
   102fc:	sw	x13,44(x2)
   10300:	sw	x15,52(x2)
   10304:	sw	x11,36(x2)
   10308:	sw	x14,48(x2)
   1030c:	sw	x16,56(x2)
   10310:	sw	x17,60(x2)
   10314:	lw	x11,8(x6)
   10318:	addi	x15,x2,36
   1031c:	addi	x12,x10,0
   10320:	addi	x13,x15,0
   10324:	addi	x10,x6,0
   10328:	sw	x1,28(x2)
   1032c:	sw	x15,12(x2)
   10330:	jal	x1,10340 <_vfprintf_r>
   10334:	lw	x1,28(x2)
   10338:	addi	x2,x2,64
   1033c:	jalr	x0,x1,0

00010340 <_vfprintf_r>:
   10340:	addi	x2,x2,-320
   10344:	sw	x1,316(x2)
   10348:	sw	x8,312(x2)
   1034c:	sw	x24,280(x2)
   10350:	sw	x26,272(x2)
   10354:	addi	x24,x11,0
   10358:	addi	x8,x12,0
   1035c:	sw	x13,40(x2)
   10360:	sw	x9,308(x2)
   10364:	sw	x18,304(x2)
   10368:	sw	x19,300(x2)
   1036c:	sw	x20,296(x2)
   10370:	sw	x21,292(x2)
   10374:	sw	x22,288(x2)
   10378:	sw	x23,284(x2)
   1037c:	sw	x25,276(x2)
   10380:	sw	x27,268(x2)
   10384:	addi	x26,x10,0
   10388:	jal	x1,147e4 <_localeconv_r>
   1038c:	lw	x15,0(x10)
   10390:	addi	x10,x15,0
   10394:	sw	x15,80(x2)
   10398:	jal	x1,166a4 <strlen>
   1039c:	sw	x10,84(x2)
   103a0:	beq	x26,x0,103ac <_vfprintf_r+0x6c>
   103a4:	lw	x15,56(x26)
   103a8:	beq	x15,x0,10670 <_vfprintf_r+0x330>
   103ac:	lh	x13,12(x24)
   103b0:	slli	x15,x13,0x10
   103b4:	srli	x15,x15,0x10
   103b8:	slli	x14,x15,0x12
   103bc:	blt	x14,x0,103e8 <_vfprintf_r+0xa8>
   103c0:	lw	x12,104(x24)
   103c4:	lui	x15,0x2
   103c8:	lui	x14,0xffffe
   103cc:	or	x15,x13,x15
   103d0:	addi	x14,x14,-1 # ffffdfff <_gp+0xfffe0a4f>
   103d4:	and	x14,x12,x14
   103d8:	sh	x15,12(x24)
   103dc:	slli	x15,x15,0x10
   103e0:	sw	x14,104(x24)
   103e4:	srli	x15,x15,0x10
   103e8:	andi	x14,x15,8
   103ec:	beq	x14,x0,105a8 <_vfprintf_r+0x268>
   103f0:	lw	x14,16(x24)
   103f4:	beq	x14,x0,105a8 <_vfprintf_r+0x268>
   103f8:	andi	x15,x15,26
   103fc:	addi	x14,x0,10
   10400:	beq	x15,x14,105cc <_vfprintf_r+0x28c>
   10404:	lui	x15,0x1b
   10408:	addi	x15,x15,-944 # 1ac50 <main+0x34>
   1040c:	sw	x15,44(x2)
   10410:	lui	x15,0x1b
   10414:	addi	x23,x15,-588 # 1adb4 <blanks.4190>
   10418:	lui	x15,0x1b
   1041c:	addi	x21,x2,192
   10420:	lui	x18,0x1b
   10424:	addi	x15,x15,528 # 1b210 <__clz_tab+0x160>
   10428:	sw	x21,140(x2)
   1042c:	sw	x0,148(x2)
   10430:	sw	x0,144(x2)
   10434:	sw	x0,60(x2)
   10438:	sw	x0,68(x2)
   1043c:	sw	x0,72(x2)
   10440:	addi	x6,x21,0
   10444:	sw	x0,76(x2)
   10448:	sw	x0,88(x2)
   1044c:	sw	x0,28(x2)
   10450:	addi	x18,x18,-572 # 1adc4 <zeroes.4191>
   10454:	sw	x15,92(x2)
   10458:	addi	x9,x8,0
   1045c:	lbu	x15,0(x9)
   10460:	beq	x15,x0,10b28 <_vfprintf_r+0x7e8>
   10464:	addi	x14,x0,37
   10468:	addi	x8,x9,0
   1046c:	bne	x15,x14,10478 <_vfprintf_r+0x138>
   10470:	jal	x0,104c4 <_vfprintf_r+0x184>
   10474:	beq	x15,x14,10484 <_vfprintf_r+0x144>
   10478:	addi	x8,x8,1
   1047c:	lbu	x15,0(x8)
   10480:	bne	x15,x0,10474 <_vfprintf_r+0x134>
   10484:	sub	x19,x8,x9
   10488:	beq	x19,x0,104c4 <_vfprintf_r+0x184>
   1048c:	lw	x14,148(x2)
   10490:	lw	x15,144(x2)
   10494:	sw	x9,0(x6)
   10498:	add	x14,x14,x19
   1049c:	addi	x15,x15,1
   104a0:	sw	x19,4(x6)
   104a4:	sw	x14,148(x2)
   104a8:	sw	x15,144(x2)
   104ac:	addi	x14,x0,7
   104b0:	addi	x6,x6,8
   104b4:	blt	x14,x15,105ec <_vfprintf_r+0x2ac>
   104b8:	lw	x15,28(x2)
   104bc:	add	x15,x15,x19
   104c0:	sw	x15,28(x2)
   104c4:	lbu	x15,0(x8)
   104c8:	beq	x15,x0,10608 <_vfprintf_r+0x2c8>
   104cc:	addi	x15,x0,-1
   104d0:	addi	x9,x8,1
   104d4:	sb	x0,111(x2)
   104d8:	addi	x11,x0,0
   104dc:	addi	x10,x0,0
   104e0:	sw	x15,24(x2)
   104e4:	addi	x14,x0,0
   104e8:	addi	x19,x0,0
   104ec:	addi	x13,x0,88
   104f0:	addi	x12,x0,9
   104f4:	addi	x16,x0,42
   104f8:	lbu	x20,0(x9)
   104fc:	addi	x9,x9,1
   10500:	addi	x15,x20,-32
   10504:	bltu	x13,x15,10f10 <_vfprintf_r+0xbd0>
   10508:	lw	x17,44(x2)
   1050c:	slli	x15,x15,0x2
   10510:	add	x15,x15,x17
   10514:	lw	x15,0(x15)
   10518:	jalr	x0,x15,0
   1051c:	ori	x19,x19,16
   10520:	jal	x0,104f8 <_vfprintf_r+0x1b8>
   10524:	lw	x15,40(x2)
   10528:	lw	x14,0(x15)
   1052c:	addi	x15,x15,4
   10530:	sw	x15,40(x2)
   10534:	bge	x14,x0,104f8 <_vfprintf_r+0x1b8>
   10538:	sub	x14,x0,x14
   1053c:	ori	x19,x19,4
   10540:	jal	x0,104f8 <_vfprintf_r+0x1b8>
   10544:	addi	x15,x0,48
   10548:	sb	x15,112(x2)
   1054c:	addi	x15,x0,120
   10550:	sb	x15,113(x2)
   10554:	lw	x12,24(x2)
   10558:	lw	x15,40(x2)
   1055c:	sw	x14,36(x2)
   10560:	sb	x0,111(x2)
   10564:	addi	x14,x15,4
   10568:	ori	x13,x19,2
   1056c:	lw	x15,0(x15)
   10570:	blt	x12,x0,10f48 <_vfprintf_r+0xc08>
   10574:	andi	x19,x19,-129
   10578:	sw	x14,40(x2)
   1057c:	ori	x19,x19,2
   10580:	bne	x15,x0,10ef8 <_vfprintf_r+0xbb8>
   10584:	lui	x15,0x1b
   10588:	addi	x15,x15,500 # 1b1f4 <__clz_tab+0x144>
   1058c:	sw	x15,76(x2)
   10590:	addi	x20,x0,120
   10594:	lw	x15,24(x2)
   10598:	addi	x12,x0,0
   1059c:	beq	x15,x0,10d8c <_vfprintf_r+0xa4c>
   105a0:	addi	x15,x0,0
   105a4:	jal	x0,10ce4 <_vfprintf_r+0x9a4>
   105a8:	addi	x11,x24,0
   105ac:	addi	x10,x26,0
   105b0:	jal	x1,120ec <__swsetup_r>
   105b4:	beq	x10,x0,105bc <_vfprintf_r+0x27c>
   105b8:	jal	x0,11998 <_vfprintf_r+0x1658>
   105bc:	lhu	x15,12(x24)
   105c0:	addi	x14,x0,10
   105c4:	andi	x15,x15,26
   105c8:	bne	x15,x14,10404 <_vfprintf_r+0xc4>
   105cc:	lh	x15,14(x24)
   105d0:	blt	x15,x0,10404 <_vfprintf_r+0xc4>
   105d4:	lw	x13,40(x2)
   105d8:	addi	x12,x8,0
   105dc:	addi	x11,x24,0
   105e0:	addi	x10,x26,0
   105e4:	jal	x1,1202c <__sbprintf>
   105e8:	jal	x0,10634 <_vfprintf_r+0x2f4>
   105ec:	addi	x12,x2,140
   105f0:	addi	x11,x24,0
   105f4:	addi	x10,x26,0
   105f8:	jal	x1,1681c <__sprint_r>
   105fc:	bne	x10,x0,10620 <_vfprintf_r+0x2e0>
   10600:	addi	x6,x21,0
   10604:	jal	x0,104b8 <_vfprintf_r+0x178>
   10608:	lw	x15,148(x2)
   1060c:	beq	x15,x0,10620 <_vfprintf_r+0x2e0>
   10610:	addi	x12,x2,140
   10614:	addi	x11,x24,0
   10618:	addi	x10,x26,0
   1061c:	jal	x1,1681c <__sprint_r>
   10620:	lhu	x15,12(x24)
   10624:	andi	x15,x15,64
   10628:	beq	x15,x0,10630 <_vfprintf_r+0x2f0>
   1062c:	jal	x0,11998 <_vfprintf_r+0x1658>
   10630:	lw	x10,28(x2)
   10634:	lw	x1,316(x2)
   10638:	lw	x8,312(x2)
   1063c:	lw	x9,308(x2)
   10640:	lw	x18,304(x2)
   10644:	lw	x19,300(x2)
   10648:	lw	x20,296(x2)
   1064c:	lw	x21,292(x2)
   10650:	lw	x22,288(x2)
   10654:	lw	x23,284(x2)
   10658:	lw	x24,280(x2)
   1065c:	lw	x25,276(x2)
   10660:	lw	x26,272(x2)
   10664:	lw	x27,268(x2)
   10668:	addi	x2,x2,320
   1066c:	jalr	x0,x1,0
   10670:	addi	x10,x26,0
   10674:	jal	x1,141b4 <__sinit>
   10678:	jal	x0,103ac <_vfprintf_r+0x6c>
   1067c:	addi	x11,x0,1
   10680:	addi	x10,x0,43
   10684:	jal	x0,104f8 <_vfprintf_r+0x1b8>
   10688:	sw	x14,36(x2)
   1068c:	beq	x11,x0,10694 <_vfprintf_r+0x354>
   10690:	jal	x0,11ff8 <_vfprintf_r+0x1cb8>
   10694:	andi	x15,x19,16
   10698:	beq	x15,x0,10c00 <_vfprintf_r+0x8c0>
   1069c:	sb	x0,111(x2)
   106a0:	lw	x15,40(x2)
   106a4:	lw	x13,24(x2)
   106a8:	addi	x14,x15,4
   106ac:	lw	x15,0(x15)
   106b0:	blt	x13,x0,10c20 <_vfprintf_r+0x8e0>
   106b4:	sw	x14,40(x2)
   106b8:	andi	x19,x19,-129
   106bc:	bne	x15,x0,10c2c <_vfprintf_r+0x8ec>
   106c0:	lw	x14,24(x2)
   106c4:	addi	x12,x0,0
   106c8:	addi	x15,x0,0
   106cc:	bne	x14,x0,106d4 <_vfprintf_r+0x394>
   106d0:	jal	x0,11a74 <_vfprintf_r+0x1734>
   106d4:	addi	x8,x21,0
   106d8:	andi	x14,x15,7
   106dc:	addi	x8,x8,-1
   106e0:	addi	x14,x14,48
   106e4:	sb	x14,0(x8)
   106e8:	srli	x15,x15,0x3
   106ec:	bne	x15,x0,106d8 <_vfprintf_r+0x398>
   106f0:	andi	x15,x19,1
   106f4:	beq	x15,x0,10b94 <_vfprintf_r+0x854>
   106f8:	addi	x15,x0,48
   106fc:	beq	x14,x15,10b94 <_vfprintf_r+0x854>
   10700:	addi	x14,x8,-1
   10704:	sb	x15,-1(x8)
   10708:	sub	x15,x21,x14
   1070c:	sw	x15,32(x2)
   10710:	addi	x8,x14,0
   10714:	jal	x0,10b9c <_vfprintf_r+0x85c>
   10718:	lbu	x20,0(x9)
   1071c:	addi	x9,x9,1
   10720:	bne	x20,x16,10728 <_vfprintf_r+0x3e8>
   10724:	jal	x0,11f5c <_vfprintf_r+0x1c1c>
   10728:	addi	x28,x20,-48
   1072c:	addi	x15,x0,0
   10730:	bgeu	x12,x28,10738 <_vfprintf_r+0x3f8>
   10734:	jal	x0,11cf4 <_vfprintf_r+0x19b4>
   10738:	addi	x9,x9,1
   1073c:	lbu	x20,-1(x9)
   10740:	slli	x17,x15,0x1
   10744:	slli	x15,x15,0x3
   10748:	add	x15,x17,x15
   1074c:	add	x15,x15,x28
   10750:	addi	x28,x20,-48
   10754:	bgeu	x12,x28,10738 <_vfprintf_r+0x3f8>
   10758:	bge	x15,x0,10760 <_vfprintf_r+0x420>
   1075c:	jal	x0,11b44 <_vfprintf_r+0x1804>
   10760:	sw	x15,24(x2)
   10764:	jal	x0,10500 <_vfprintf_r+0x1c0>
   10768:	ori	x19,x19,128
   1076c:	jal	x0,104f8 <_vfprintf_r+0x1b8>
   10770:	bne	x10,x0,104f8 <_vfprintf_r+0x1b8>
   10774:	addi	x11,x0,1
   10778:	addi	x10,x0,32
   1077c:	jal	x0,104f8 <_vfprintf_r+0x1b8>
   10780:	ori	x19,x19,1
   10784:	jal	x0,104f8 <_vfprintf_r+0x1b8>
   10788:	lw	x15,40(x2)
   1078c:	sw	x14,36(x2)
   10790:	sb	x0,111(x2)
   10794:	lw	x8,0(x15)
   10798:	addi	x22,x15,4
   1079c:	lw	x15,24(x2)
   107a0:	bne	x8,x0,107a8 <_vfprintf_r+0x468>
   107a4:	jal	x0,11b54 <_vfprintf_r+0x1814>
   107a8:	sw	x6,20(x2)
   107ac:	bge	x15,x0,107b4 <_vfprintf_r+0x474>
   107b0:	jal	x0,11b20 <_vfprintf_r+0x17e0>
   107b4:	addi	x12,x15,0
   107b8:	addi	x11,x0,0
   107bc:	addi	x10,x8,0
   107c0:	jal	x1,150c0 <memchr>
   107c4:	lw	x6,20(x2)
   107c8:	bne	x10,x0,107d0 <_vfprintf_r+0x490>
   107cc:	jal	x0,11c28 <_vfprintf_r+0x18e8>
   107d0:	sub	x15,x10,x8
   107d4:	sw	x15,32(x2)
   107d8:	bge	x15,x0,107e0 <_vfprintf_r+0x4a0>
   107dc:	jal	x0,11b3c <_vfprintf_r+0x17fc>
   107e0:	lbu	x12,111(x2)
   107e4:	sw	x15,20(x2)
   107e8:	sw	x22,40(x2)
   107ec:	sw	x0,24(x2)
   107f0:	sw	x0,56(x2)
   107f4:	beq	x12,x0,10804 <_vfprintf_r+0x4c4>
   107f8:	lw	x15,20(x2)
   107fc:	addi	x15,x15,1
   10800:	sw	x15,20(x2)
   10804:	andi	x15,x19,2
   10808:	sw	x15,48(x2)
   1080c:	beq	x15,x0,1081c <_vfprintf_r+0x4dc>
   10810:	lw	x15,20(x2)
   10814:	addi	x15,x15,2
   10818:	sw	x15,20(x2)
   1081c:	andi	x15,x19,132
   10820:	sw	x15,52(x2)
   10824:	bne	x15,x0,10fa0 <_vfprintf_r+0xc60>
   10828:	lw	x15,36(x2)
   1082c:	lw	x14,20(x2)
   10830:	sub	x27,x15,x14
   10834:	bge	x0,x27,10fa0 <_vfprintf_r+0xc60>
   10838:	addi	x16,x0,16
   1083c:	sw	x23,64(x2)
   10840:	lw	x15,148(x2)
   10844:	lw	x14,144(x2)
   10848:	bge	x16,x27,108a8 <_vfprintf_r+0x568>
   1084c:	addi	x25,x16,0
   10850:	addi	x22,x0,7
   10854:	jal	x0,10860 <_vfprintf_r+0x520>
   10858:	addi	x27,x27,-16
   1085c:	bge	x25,x27,108a8 <_vfprintf_r+0x568>
   10860:	addi	x15,x15,16
   10864:	addi	x14,x14,1
   10868:	sw	x23,0(x6)
   1086c:	sw	x25,4(x6)
   10870:	sw	x15,148(x2)
   10874:	sw	x14,144(x2)
   10878:	addi	x6,x6,8
   1087c:	bge	x22,x14,10858 <_vfprintf_r+0x518>
   10880:	addi	x12,x2,140
   10884:	addi	x11,x24,0
   10888:	addi	x10,x26,0
   1088c:	jal	x1,1681c <__sprint_r>
   10890:	bne	x10,x0,10620 <_vfprintf_r+0x2e0>
   10894:	addi	x27,x27,-16
   10898:	lw	x15,148(x2)
   1089c:	lw	x14,144(x2)
   108a0:	addi	x6,x21,0
   108a4:	blt	x25,x27,10860 <_vfprintf_r+0x520>
   108a8:	lw	x13,64(x2)
   108ac:	add	x15,x27,x15
   108b0:	addi	x14,x14,1
   108b4:	sw	x13,0(x6)
   108b8:	sw	x27,4(x6)
   108bc:	sw	x15,148(x2)
   108c0:	sw	x14,144(x2)
   108c4:	addi	x13,x0,7
   108c8:	blt	x13,x14,113fc <_vfprintf_r+0x10bc>
   108cc:	lbu	x12,111(x2)
   108d0:	addi	x6,x6,8
   108d4:	beq	x12,x0,10908 <_vfprintf_r+0x5c8>
   108d8:	lw	x14,144(x2)
   108dc:	addi	x13,x2,111
   108e0:	sw	x13,0(x6)
   108e4:	addi	x15,x15,1
   108e8:	addi	x13,x0,1
   108ec:	addi	x14,x14,1
   108f0:	sw	x13,4(x6)
   108f4:	sw	x15,148(x2)
   108f8:	sw	x14,144(x2)
   108fc:	addi	x13,x0,7
   10900:	addi	x6,x6,8
   10904:	blt	x13,x14,112e4 <_vfprintf_r+0xfa4>
   10908:	lw	x14,48(x2)
   1090c:	beq	x14,x0,10940 <_vfprintf_r+0x600>
   10910:	lw	x14,144(x2)
   10914:	addi	x13,x2,112
   10918:	sw	x13,0(x6)
   1091c:	addi	x15,x15,2
   10920:	addi	x13,x0,2
   10924:	addi	x14,x14,1
   10928:	sw	x13,4(x6)
   1092c:	sw	x15,148(x2)
   10930:	sw	x14,144(x2)
   10934:	addi	x13,x0,7
   10938:	addi	x6,x6,8
   1093c:	blt	x13,x14,11304 <_vfprintf_r+0xfc4>
   10940:	lw	x13,52(x2)
   10944:	addi	x14,x0,128
   10948:	beq	x13,x14,111bc <_vfprintf_r+0xe7c>
   1094c:	lw	x14,24(x2)
   10950:	lw	x13,32(x2)
   10954:	sub	x25,x14,x13
   10958:	bge	x0,x25,10a08 <_vfprintf_r+0x6c8>
   1095c:	addi	x27,x0,16
   10960:	sw	x18,48(x2)
   10964:	lw	x14,144(x2)
   10968:	bge	x27,x25,109c4 <_vfprintf_r+0x684>
   1096c:	addi	x22,x0,7
   10970:	jal	x0,1097c <_vfprintf_r+0x63c>
   10974:	addi	x25,x25,-16
   10978:	bge	x27,x25,109c4 <_vfprintf_r+0x684>
   1097c:	addi	x15,x15,16
   10980:	addi	x14,x14,1
   10984:	sw	x18,0(x6)
   10988:	sw	x27,4(x6)
   1098c:	sw	x15,148(x2)
   10990:	sw	x14,144(x2)
   10994:	addi	x6,x6,8
   10998:	bge	x22,x14,10974 <_vfprintf_r+0x634>
   1099c:	addi	x12,x2,140
   109a0:	addi	x11,x24,0
   109a4:	addi	x10,x26,0
   109a8:	jal	x1,1681c <__sprint_r>
   109ac:	bne	x10,x0,10620 <_vfprintf_r+0x2e0>
   109b0:	addi	x25,x25,-16
   109b4:	lw	x15,148(x2)
   109b8:	lw	x14,144(x2)
   109bc:	addi	x6,x21,0
   109c0:	blt	x27,x25,1097c <_vfprintf_r+0x63c>
   109c4:	lw	x13,48(x2)
   109c8:	add	x15,x15,x25
   109cc:	addi	x14,x14,1
   109d0:	sw	x13,0(x6)
   109d4:	sw	x25,4(x6)
   109d8:	sw	x15,148(x2)
   109dc:	sw	x14,144(x2)
   109e0:	addi	x13,x0,7
   109e4:	addi	x6,x6,8
   109e8:	bge	x13,x14,10a08 <_vfprintf_r+0x6c8>
   109ec:	addi	x12,x2,140
   109f0:	addi	x11,x24,0
   109f4:	addi	x10,x26,0
   109f8:	jal	x1,1681c <__sprint_r>
   109fc:	bne	x10,x0,10620 <_vfprintf_r+0x2e0>
   10a00:	lw	x15,148(x2)
   10a04:	addi	x6,x21,0
   10a08:	andi	x14,x19,256
   10a0c:	bne	x14,x0,110a8 <_vfprintf_r+0xd68>
   10a10:	lw	x13,32(x2)
   10a14:	lw	x14,144(x2)
   10a18:	sw	x8,0(x6)
   10a1c:	add	x15,x15,x13
   10a20:	addi	x14,x14,1
   10a24:	sw	x13,4(x6)
   10a28:	sw	x15,148(x2)
   10a2c:	sw	x14,144(x2)
   10a30:	addi	x13,x0,7
   10a34:	blt	x13,x14,11088 <_vfprintf_r+0xd48>
   10a38:	addi	x6,x6,8
   10a3c:	andi	x19,x19,4
   10a40:	beq	x19,x0,10af8 <_vfprintf_r+0x7b8>
   10a44:	lw	x14,36(x2)
   10a48:	lw	x13,20(x2)
   10a4c:	sub	x8,x14,x13
   10a50:	bge	x0,x8,10af8 <_vfprintf_r+0x7b8>
   10a54:	addi	x19,x0,16
   10a58:	sw	x23,64(x2)
   10a5c:	lw	x14,144(x2)
   10a60:	bge	x19,x8,10abc <_vfprintf_r+0x77c>
   10a64:	addi	x20,x0,7
   10a68:	jal	x0,10a74 <_vfprintf_r+0x734>
   10a6c:	addi	x8,x8,-16
   10a70:	bge	x19,x8,10abc <_vfprintf_r+0x77c>
   10a74:	addi	x15,x15,16
   10a78:	addi	x14,x14,1
   10a7c:	sw	x23,0(x6)
   10a80:	sw	x19,4(x6)
   10a84:	sw	x15,148(x2)
   10a88:	sw	x14,144(x2)
   10a8c:	addi	x6,x6,8
   10a90:	bge	x20,x14,10a6c <_vfprintf_r+0x72c>
   10a94:	addi	x12,x2,140
   10a98:	addi	x11,x24,0
   10a9c:	addi	x10,x26,0
   10aa0:	jal	x1,1681c <__sprint_r>
   10aa4:	bne	x10,x0,10620 <_vfprintf_r+0x2e0>
   10aa8:	addi	x8,x8,-16
   10aac:	lw	x15,148(x2)
   10ab0:	lw	x14,144(x2)
   10ab4:	addi	x6,x21,0
   10ab8:	blt	x19,x8,10a74 <_vfprintf_r+0x734>
   10abc:	lw	x13,64(x2)
   10ac0:	add	x15,x15,x8
   10ac4:	addi	x14,x14,1
   10ac8:	sw	x13,0(x6)
   10acc:	sw	x8,4(x6)
   10ad0:	sw	x15,148(x2)
   10ad4:	sw	x14,144(x2)
   10ad8:	addi	x13,x0,7
   10adc:	bge	x13,x14,10af8 <_vfprintf_r+0x7b8>
   10ae0:	addi	x12,x2,140
   10ae4:	addi	x11,x24,0
   10ae8:	addi	x10,x26,0
   10aec:	jal	x1,1681c <__sprint_r>
   10af0:	bne	x10,x0,10620 <_vfprintf_r+0x2e0>
   10af4:	lw	x15,148(x2)
   10af8:	lw	x14,36(x2)
   10afc:	lw	x13,20(x2)
   10b00:	bge	x14,x13,10b08 <_vfprintf_r+0x7c8>
   10b04:	addi	x14,x13,0
   10b08:	lw	x13,28(x2)
   10b0c:	add	x14,x13,x14
   10b10:	sw	x14,28(x2)
   10b14:	bne	x15,x0,112cc <_vfprintf_r+0xf8c>
   10b18:	lbu	x15,0(x9)
   10b1c:	sw	x0,144(x2)
   10b20:	addi	x6,x21,0
   10b24:	bne	x15,x0,10464 <_vfprintf_r+0x124>
   10b28:	addi	x8,x9,0
   10b2c:	jal	x0,104c4 <_vfprintf_r+0x184>
   10b30:	sw	x14,36(x2)
   10b34:	beq	x11,x0,10b3c <_vfprintf_r+0x7fc>
   10b38:	jal	x0,11ff0 <_vfprintf_r+0x1cb0>
   10b3c:	andi	x15,x19,16
   10b40:	beq	x15,x0,10c4c <_vfprintf_r+0x90c>
   10b44:	sb	x0,111(x2)
   10b48:	lw	x15,40(x2)
   10b4c:	lw	x13,24(x2)
   10b50:	addi	x14,x15,4
   10b54:	lw	x15,0(x15)
   10b58:	blt	x13,x0,10c6c <_vfprintf_r+0x92c>
   10b5c:	sw	x14,40(x2)
   10b60:	andi	x19,x19,-129
   10b64:	addi	x12,x0,0
   10b68:	beq	x15,x0,10d84 <_vfprintf_r+0xa44>
   10b6c:	addi	x14,x0,9
   10b70:	addi	x8,x21,0
   10b74:	addi	x13,x0,10
   10b78:	bgeu	x14,x15,114bc <_vfprintf_r+0x117c>
   10b7c:	remu	x14,x15,x13
   10b80:	addi	x8,x8,-1
   10b84:	divu	x15,x15,x13
   10b88:	addi	x14,x14,48
   10b8c:	sb	x14,0(x8)
   10b90:	bne	x15,x0,10b7c <_vfprintf_r+0x83c>
   10b94:	sub	x15,x21,x8
   10b98:	sw	x15,32(x2)
   10b9c:	lw	x14,32(x2)
   10ba0:	lw	x13,24(x2)
   10ba4:	addi	x15,x14,0
   10ba8:	bge	x14,x13,10bb0 <_vfprintf_r+0x870>
   10bac:	addi	x15,x13,0
   10bb0:	sw	x15,20(x2)
   10bb4:	sw	x0,56(x2)
   10bb8:	jal	x0,107f4 <_vfprintf_r+0x4b4>
   10bbc:	addi	x14,x0,0
   10bc0:	addi	x28,x20,-48
   10bc4:	addi	x9,x9,1
   10bc8:	lbu	x20,-1(x9)
   10bcc:	slli	x15,x14,0x1
   10bd0:	slli	x14,x14,0x3
   10bd4:	add	x14,x15,x14
   10bd8:	add	x14,x28,x14
   10bdc:	addi	x28,x20,-48
   10be0:	bgeu	x12,x28,10bc4 <_vfprintf_r+0x884>
   10be4:	jal	x0,10500 <_vfprintf_r+0x1c0>
   10be8:	sw	x14,36(x2)
   10bec:	beq	x11,x0,10bf4 <_vfprintf_r+0x8b4>
   10bf0:	jal	x0,11fe4 <_vfprintf_r+0x1ca4>
   10bf4:	ori	x19,x19,16
   10bf8:	andi	x15,x19,16
   10bfc:	bne	x15,x0,1069c <_vfprintf_r+0x35c>
   10c00:	andi	x15,x19,64
   10c04:	sb	x0,111(x2)
   10c08:	beq	x15,x0,106a0 <_vfprintf_r+0x360>
   10c0c:	lw	x15,40(x2)
   10c10:	lw	x13,24(x2)
   10c14:	addi	x14,x15,4
   10c18:	lhu	x15,0(x15)
   10c1c:	bge	x13,x0,106b4 <_vfprintf_r+0x374>
   10c20:	sw	x14,40(x2)
   10c24:	addi	x12,x0,0
   10c28:	beq	x15,x0,10f6c <_vfprintf_r+0xc2c>
   10c2c:	addi	x12,x0,0
   10c30:	jal	x0,106d4 <_vfprintf_r+0x394>
   10c34:	sw	x14,36(x2)
   10c38:	beq	x11,x0,10c40 <_vfprintf_r+0x900>
   10c3c:	jal	x0,11fd8 <_vfprintf_r+0x1c98>
   10c40:	ori	x19,x19,16
   10c44:	andi	x15,x19,16
   10c48:	bne	x15,x0,10b44 <_vfprintf_r+0x804>
   10c4c:	andi	x15,x19,64
   10c50:	sb	x0,111(x2)
   10c54:	beq	x15,x0,10b48 <_vfprintf_r+0x808>
   10c58:	lw	x15,40(x2)
   10c5c:	lw	x13,24(x2)
   10c60:	addi	x14,x15,4
   10c64:	lhu	x15,0(x15)
   10c68:	bge	x13,x0,10b5c <_vfprintf_r+0x81c>
   10c6c:	sw	x14,40(x2)
   10c70:	addi	x12,x0,0
   10c74:	bne	x15,x0,10b6c <_vfprintf_r+0x82c>
   10c78:	addi	x15,x0,1
   10c7c:	jal	x0,10f6c <_vfprintf_r+0xc2c>
   10c80:	sw	x14,36(x2)
   10c84:	beq	x11,x0,10c8c <_vfprintf_r+0x94c>
   10c88:	jal	x0,11fd0 <_vfprintf_r+0x1c90>
   10c8c:	lui	x15,0x1b
   10c90:	addi	x15,x15,480 # 1b1e0 <__clz_tab+0x130>
   10c94:	sw	x15,76(x2)
   10c98:	andi	x15,x19,16
   10c9c:	beq	x15,x0,10dbc <_vfprintf_r+0xa7c>
   10ca0:	lw	x14,40(x2)
   10ca4:	lw	x15,0(x14)
   10ca8:	addi	x14,x14,4
   10cac:	sw	x14,40(x2)
   10cb0:	andi	x14,x19,1
   10cb4:	beq	x14,x0,11324 <_vfprintf_r+0xfe4>
   10cb8:	beq	x15,x0,11890 <_vfprintf_r+0x1550>
   10cbc:	lw	x13,24(x2)
   10cc0:	addi	x14,x0,48
   10cc4:	sb	x14,112(x2)
   10cc8:	sb	x20,113(x2)
   10ccc:	sb	x0,111(x2)
   10cd0:	ori	x14,x19,2
   10cd4:	blt	x13,x0,11bcc <_vfprintf_r+0x188c>
   10cd8:	andi	x19,x19,-129
   10cdc:	ori	x19,x19,2
   10ce0:	addi	x12,x0,0
   10ce4:	lw	x13,76(x2)
   10ce8:	addi	x8,x21,0
   10cec:	andi	x14,x15,15
   10cf0:	add	x14,x13,x14
   10cf4:	lbu	x14,0(x14)
   10cf8:	addi	x8,x8,-1
   10cfc:	srli	x15,x15,0x4
   10d00:	sb	x14,0(x8)
   10d04:	bne	x15,x0,10cec <_vfprintf_r+0x9ac>
   10d08:	jal	x0,10b94 <_vfprintf_r+0x854>
   10d0c:	sw	x14,36(x2)
   10d10:	lw	x14,40(x2)
   10d14:	addi	x13,x0,1
   10d18:	sw	x13,20(x2)
   10d1c:	lw	x15,0(x14)
   10d20:	sb	x0,111(x2)
   10d24:	addi	x12,x0,0
   10d28:	sb	x15,152(x2)
   10d2c:	addi	x15,x14,4
   10d30:	sw	x15,40(x2)
   10d34:	sw	x13,32(x2)
   10d38:	sw	x0,24(x2)
   10d3c:	sw	x0,56(x2)
   10d40:	addi	x8,x2,152
   10d44:	jal	x0,10804 <_vfprintf_r+0x4c4>
   10d48:	sw	x14,36(x2)
   10d4c:	beq	x11,x0,10d54 <_vfprintf_r+0xa14>
   10d50:	jal	x0,12000 <_vfprintf_r+0x1cc0>
   10d54:	andi	x15,x19,16
   10d58:	beq	x15,x0,10e98 <_vfprintf_r+0xb58>
   10d5c:	lw	x14,40(x2)
   10d60:	lw	x15,0(x14)
   10d64:	addi	x14,x14,4
   10d68:	sw	x14,40(x2)
   10d6c:	blt	x15,x0,116b4 <_vfprintf_r+0x1374>
   10d70:	lw	x14,24(x2)
   10d74:	lbu	x12,111(x2)
   10d78:	blt	x14,x0,10c74 <_vfprintf_r+0x934>
   10d7c:	andi	x19,x19,-129
   10d80:	bne	x15,x0,10b6c <_vfprintf_r+0x82c>
   10d84:	lw	x15,24(x2)
   10d88:	bne	x15,x0,114b8 <_vfprintf_r+0x1178>
   10d8c:	sw	x0,24(x2)
   10d90:	sw	x0,32(x2)
   10d94:	addi	x8,x21,0
   10d98:	jal	x0,10b9c <_vfprintf_r+0x85c>
   10d9c:	sw	x14,36(x2)
   10da0:	beq	x11,x0,10da8 <_vfprintf_r+0xa68>
   10da4:	jal	x0,12010 <_vfprintf_r+0x1cd0>
   10da8:	lui	x15,0x1b
   10dac:	addi	x15,x15,500 # 1b1f4 <__clz_tab+0x144>
   10db0:	sw	x15,76(x2)
   10db4:	andi	x15,x19,16
   10db8:	bne	x15,x0,10ca0 <_vfprintf_r+0x960>
   10dbc:	andi	x15,x19,64
   10dc0:	lw	x14,40(x2)
   10dc4:	beq	x15,x0,11870 <_vfprintf_r+0x1530>
   10dc8:	lhu	x15,0(x14)
   10dcc:	addi	x14,x14,4
   10dd0:	sw	x14,40(x2)
   10dd4:	jal	x0,10cb0 <_vfprintf_r+0x970>
   10dd8:	sw	x14,36(x2)
   10ddc:	beq	x11,x0,10de4 <_vfprintf_r+0xaa4>
   10de0:	jal	x0,12008 <_vfprintf_r+0x1cc8>
   10de4:	andi	x15,x19,8
   10de8:	beq	x15,x0,11848 <_vfprintf_r+0x1508>
   10dec:	lw	x15,40(x2)
   10df0:	addi	x15,x15,7
   10df4:	andi	x15,x15,-8
   10df8:	addi	x14,x15,8
   10dfc:	sw	x14,40(x2)
   10e00:	lw	x14,0(x15)
   10e04:	lw	x15,4(x15)
   10e08:	sw	x14,68(x2)
   10e0c:	sw	x15,72(x2)
   10e10:	lw	x25,68(x2)
   10e14:	lw	x22,72(x2)
   10e18:	sw	x6,20(x2)
   10e1c:	addi	x10,x25,0
   10e20:	addi	x11,x22,0
   10e24:	jal	x1,163ac <__fpclassifyd>
   10e28:	addi	x8,x0,1
   10e2c:	lw	x6,20(x2)
   10e30:	bne	x10,x8,116d4 <_vfprintf_r+0x1394>
   10e34:	addi	x10,x25,0
   10e38:	addi	x11,x22,0
   10e3c:	addi	x12,x0,0
   10e40:	addi	x13,x0,0
   10e44:	jal	x1,19c8c <__ltdf2>
   10e48:	lw	x6,20(x2)
   10e4c:	blt	x10,x0,11bdc <_vfprintf_r+0x189c>
   10e50:	lbu	x12,111(x2)
   10e54:	addi	x15,x0,71
   10e58:	bge	x15,x20,119d0 <_vfprintf_r+0x1690>
   10e5c:	lui	x8,0x1b
   10e60:	addi	x8,x8,468 # 1b1d4 <__clz_tab+0x124>
   10e64:	addi	x15,x0,3
   10e68:	sw	x15,20(x2)
   10e6c:	andi	x19,x19,-129
   10e70:	sw	x15,32(x2)
   10e74:	sw	x0,24(x2)
   10e78:	sw	x0,56(x2)
   10e7c:	jal	x0,107f4 <_vfprintf_r+0x4b4>
   10e80:	sw	x14,36(x2)
   10e84:	beq	x11,x0,10e8c <_vfprintf_r+0xb4c>
   10e88:	jal	x0,11f84 <_vfprintf_r+0x1c44>
   10e8c:	ori	x19,x19,16
   10e90:	andi	x15,x19,16
   10e94:	bne	x15,x0,10d5c <_vfprintf_r+0xa1c>
   10e98:	andi	x15,x19,64
   10e9c:	lw	x14,40(x2)
   10ea0:	beq	x15,x0,11880 <_vfprintf_r+0x1540>
   10ea4:	lh	x15,0(x14)
   10ea8:	addi	x14,x14,4
   10eac:	sw	x14,40(x2)
   10eb0:	jal	x0,10d6c <_vfprintf_r+0xa2c>
   10eb4:	ori	x19,x19,8
   10eb8:	jal	x0,104f8 <_vfprintf_r+0x1b8>
   10ebc:	beq	x11,x0,10ec4 <_vfprintf_r+0xb84>
   10ec0:	jal	x0,11fc0 <_vfprintf_r+0x1c80>
   10ec4:	andi	x15,x19,16
   10ec8:	bne	x15,x0,10f84 <_vfprintf_r+0xc44>
   10ecc:	andi	x19,x19,64
   10ed0:	beq	x19,x0,10f84 <_vfprintf_r+0xc44>
   10ed4:	lw	x14,40(x2)
   10ed8:	lw	x15,0(x14)
   10edc:	addi	x14,x14,4
   10ee0:	sw	x14,40(x2)
   10ee4:	lhu	x14,28(x2)
   10ee8:	sh	x14,0(x15)
   10eec:	jal	x0,1045c <_vfprintf_r+0x11c>
   10ef0:	ori	x19,x19,64
   10ef4:	jal	x0,104f8 <_vfprintf_r+0x1b8>
   10ef8:	lui	x14,0x1b
   10efc:	addi	x14,x14,500 # 1b1f4 <__clz_tab+0x144>
   10f00:	addi	x12,x0,0
   10f04:	sw	x14,76(x2)
   10f08:	addi	x20,x0,120
   10f0c:	jal	x0,10ce4 <_vfprintf_r+0x9a4>
   10f10:	sw	x14,36(x2)
   10f14:	beq	x11,x0,10f1c <_vfprintf_r+0xbdc>
   10f18:	jal	x0,11fb8 <_vfprintf_r+0x1c78>
   10f1c:	beq	x20,x0,10608 <_vfprintf_r+0x2c8>
   10f20:	addi	x15,x0,1
   10f24:	sw	x15,20(x2)
   10f28:	sb	x20,152(x2)
   10f2c:	sb	x0,111(x2)
   10f30:	addi	x12,x0,0
   10f34:	sw	x15,32(x2)
   10f38:	sw	x0,24(x2)
   10f3c:	sw	x0,56(x2)
   10f40:	addi	x8,x2,152
   10f44:	jal	x0,10804 <_vfprintf_r+0x4c4>
   10f48:	sw	x14,40(x2)
   10f4c:	lui	x14,0x1b
   10f50:	addi	x14,x14,500 # 1b1f4 <__clz_tab+0x144>
   10f54:	addi	x19,x13,0
   10f58:	sw	x14,76(x2)
   10f5c:	addi	x20,x0,120
   10f60:	bne	x15,x0,11338 <_vfprintf_r+0xff8>
   10f64:	addi	x12,x0,0
   10f68:	addi	x15,x0,2
   10f6c:	addi	x14,x0,1
   10f70:	beq	x15,x14,114b8 <_vfprintf_r+0x1178>
   10f74:	addi	x14,x0,2
   10f78:	beq	x15,x14,105a0 <_vfprintf_r+0x260>
   10f7c:	addi	x15,x0,0
   10f80:	jal	x0,106d4 <_vfprintf_r+0x394>
   10f84:	lw	x14,40(x2)
   10f88:	lw	x15,0(x14)
   10f8c:	addi	x14,x14,4
   10f90:	sw	x14,40(x2)
   10f94:	lw	x14,28(x2)
   10f98:	sw	x14,0(x15)
   10f9c:	jal	x0,1045c <_vfprintf_r+0x11c>
   10fa0:	lw	x15,148(x2)
   10fa4:	jal	x0,108d4 <_vfprintf_r+0x594>
   10fa8:	lw	x13,60(x2)
   10fac:	addi	x14,x0,1
   10fb0:	addi	x15,x15,1
   10fb4:	bge	x14,x13,1127c <_vfprintf_r+0xf3c>
   10fb8:	lw	x20,144(x2)
   10fbc:	addi	x14,x0,1
   10fc0:	sw	x14,4(x6)
   10fc4:	addi	x20,x20,1
   10fc8:	sw	x8,0(x6)
   10fcc:	sw	x15,148(x2)
   10fd0:	sw	x20,144(x2)
   10fd4:	addi	x14,x0,7
   10fd8:	addi	x6,x6,8
   10fdc:	blt	x14,x20,1163c <_vfprintf_r+0x12fc>
   10fe0:	lw	x14,84(x2)
   10fe4:	lw	x13,80(x2)
   10fe8:	addi	x20,x20,1
   10fec:	add	x15,x14,x15
   10ff0:	sw	x14,4(x6)
   10ff4:	sw	x13,0(x6)
   10ff8:	sw	x15,148(x2)
   10ffc:	sw	x20,144(x2)
   11000:	addi	x14,x0,7
   11004:	addi	x25,x6,8
   11008:	blt	x14,x20,1168c <_vfprintf_r+0x134c>
   1100c:	lw	x10,68(x2)
   11010:	lw	x11,72(x2)
   11014:	addi	x12,x0,0
   11018:	addi	x13,x0,0
   1101c:	sw	x15,24(x2)
   11020:	jal	x1,19c90 <__nedf2>
   11024:	lw	x15,24(x2)
   11028:	lw	x14,60(x2)
   1102c:	beq	x10,x0,11420 <_vfprintf_r+0x10e0>
   11030:	addi	x14,x14,-1
   11034:	add	x15,x15,x14
   11038:	addi	x8,x8,1
   1103c:	addi	x20,x20,1
   11040:	sw	x14,4(x25)
   11044:	sw	x8,0(x25)
   11048:	sw	x15,148(x2)
   1104c:	sw	x20,144(x2)
   11050:	addi	x14,x0,7
   11054:	blt	x14,x20,112a8 <_vfprintf_r+0xf68>
   11058:	addi	x25,x25,8
   1105c:	lw	x13,88(x2)
   11060:	addi	x14,x2,124
   11064:	addi	x20,x20,1
   11068:	add	x15,x13,x15
   1106c:	sw	x14,0(x25)
   11070:	sw	x13,4(x25)
   11074:	sw	x15,148(x2)
   11078:	sw	x20,144(x2)
   1107c:	addi	x14,x0,7
   11080:	addi	x6,x25,8
   11084:	bge	x14,x20,10a3c <_vfprintf_r+0x6fc>
   11088:	addi	x12,x2,140
   1108c:	addi	x11,x24,0
   11090:	addi	x10,x26,0
   11094:	jal	x1,1681c <__sprint_r>
   11098:	bne	x10,x0,10620 <_vfprintf_r+0x2e0>
   1109c:	lw	x15,148(x2)
   110a0:	addi	x6,x21,0
   110a4:	jal	x0,10a3c <_vfprintf_r+0x6fc>
   110a8:	addi	x14,x0,101
   110ac:	bge	x14,x20,10fa8 <_vfprintf_r+0xc68>
   110b0:	lw	x10,68(x2)
   110b4:	lw	x11,72(x2)
   110b8:	addi	x12,x0,0
   110bc:	addi	x13,x0,0
   110c0:	sw	x6,32(x2)
   110c4:	sw	x15,24(x2)
   110c8:	jal	x1,19c94 <__eqdf2>
   110cc:	lw	x15,24(x2)
   110d0:	lw	x6,32(x2)
   110d4:	bne	x10,x0,11340 <_vfprintf_r+0x1000>
   110d8:	lw	x14,144(x2)
   110dc:	lw	x13,92(x2)
   110e0:	addi	x15,x15,1
   110e4:	addi	x14,x14,1
   110e8:	sw	x13,0(x6)
   110ec:	addi	x13,x0,1
   110f0:	sw	x13,4(x6)
   110f4:	sw	x15,148(x2)
   110f8:	sw	x14,144(x2)
   110fc:	addi	x13,x0,7
   11100:	addi	x6,x6,8
   11104:	blt	x13,x14,118a4 <_vfprintf_r+0x1564>
   11108:	lw	x14,116(x2)
   1110c:	lw	x13,60(x2)
   11110:	blt	x14,x13,1111c <_vfprintf_r+0xddc>
   11114:	andi	x14,x19,1
   11118:	beq	x14,x0,10a3c <_vfprintf_r+0x6fc>
   1111c:	lw	x14,80(x2)
   11120:	lw	x13,84(x2)
   11124:	addi	x6,x6,8
   11128:	sw	x14,-8(x6)
   1112c:	lw	x14,144(x2)
   11130:	add	x15,x15,x13
   11134:	sw	x13,-4(x6)
   11138:	addi	x14,x14,1
   1113c:	sw	x15,148(x2)
   11140:	sw	x14,144(x2)
   11144:	addi	x13,x0,7
   11148:	blt	x13,x14,11a9c <_vfprintf_r+0x175c>
   1114c:	lw	x14,60(x2)
   11150:	addi	x8,x14,-1
   11154:	bge	x0,x8,10a3c <_vfprintf_r+0x6fc>
   11158:	addi	x20,x0,16
   1115c:	sw	x18,48(x2)
   11160:	lw	x14,144(x2)
   11164:	bge	x20,x8,11490 <_vfprintf_r+0x1150>
   11168:	addi	x25,x0,7
   1116c:	jal	x0,11178 <_vfprintf_r+0xe38>
   11170:	addi	x8,x8,-16
   11174:	bge	x20,x8,11490 <_vfprintf_r+0x1150>
   11178:	addi	x15,x15,16
   1117c:	addi	x14,x14,1
   11180:	sw	x18,0(x6)
   11184:	sw	x20,4(x6)
   11188:	sw	x15,148(x2)
   1118c:	sw	x14,144(x2)
   11190:	addi	x6,x6,8
   11194:	bge	x25,x14,11170 <_vfprintf_r+0xe30>
   11198:	addi	x12,x2,140
   1119c:	addi	x11,x24,0
   111a0:	addi	x10,x26,0
   111a4:	jal	x1,1681c <__sprint_r>
   111a8:	bne	x10,x0,10620 <_vfprintf_r+0x2e0>
   111ac:	lw	x15,148(x2)
   111b0:	lw	x14,144(x2)
   111b4:	addi	x6,x21,0
   111b8:	jal	x0,11170 <_vfprintf_r+0xe30>
   111bc:	lw	x14,36(x2)
   111c0:	lw	x13,20(x2)
   111c4:	sub	x25,x14,x13
   111c8:	bge	x0,x25,1094c <_vfprintf_r+0x60c>
   111cc:	addi	x27,x0,16
   111d0:	sw	x18,48(x2)
   111d4:	lw	x14,144(x2)
   111d8:	bge	x27,x25,11234 <_vfprintf_r+0xef4>
   111dc:	addi	x22,x0,7
   111e0:	jal	x0,111ec <_vfprintf_r+0xeac>
   111e4:	addi	x25,x25,-16
   111e8:	bge	x27,x25,11234 <_vfprintf_r+0xef4>
   111ec:	addi	x15,x15,16
   111f0:	addi	x14,x14,1
   111f4:	sw	x18,0(x6)
   111f8:	sw	x27,4(x6)
   111fc:	sw	x15,148(x2)
   11200:	sw	x14,144(x2)
   11204:	addi	x6,x6,8
   11208:	bge	x22,x14,111e4 <_vfprintf_r+0xea4>
   1120c:	addi	x12,x2,140
   11210:	addi	x11,x24,0
   11214:	addi	x10,x26,0
   11218:	jal	x1,1681c <__sprint_r>
   1121c:	bne	x10,x0,10620 <_vfprintf_r+0x2e0>
   11220:	addi	x25,x25,-16
   11224:	lw	x15,148(x2)
   11228:	lw	x14,144(x2)
   1122c:	addi	x6,x21,0
   11230:	blt	x27,x25,111ec <_vfprintf_r+0xeac>
   11234:	lw	x13,48(x2)
   11238:	add	x15,x15,x25
   1123c:	addi	x14,x14,1
   11240:	sw	x13,0(x6)
   11244:	sw	x25,4(x6)
   11248:	sw	x15,148(x2)
   1124c:	sw	x14,144(x2)
   11250:	addi	x13,x0,7
   11254:	addi	x6,x6,8
   11258:	bge	x13,x14,1094c <_vfprintf_r+0x60c>
   1125c:	addi	x12,x2,140
   11260:	addi	x11,x24,0
   11264:	addi	x10,x26,0
   11268:	jal	x1,1681c <__sprint_r>
   1126c:	bne	x10,x0,10620 <_vfprintf_r+0x2e0>
   11270:	lw	x15,148(x2)
   11274:	addi	x6,x21,0
   11278:	jal	x0,1094c <_vfprintf_r+0x60c>
   1127c:	and	x13,x19,x14
   11280:	bne	x13,x0,10fb8 <_vfprintf_r+0xc78>
   11284:	lw	x20,144(x2)
   11288:	sw	x14,4(x6)
   1128c:	sw	x8,0(x6)
   11290:	addi	x20,x20,1
   11294:	sw	x15,148(x2)
   11298:	sw	x20,144(x2)
   1129c:	addi	x14,x0,7
   112a0:	addi	x25,x6,8
   112a4:	bge	x14,x20,1105c <_vfprintf_r+0xd1c>
   112a8:	addi	x12,x2,140
   112ac:	addi	x11,x24,0
   112b0:	addi	x10,x26,0
   112b4:	jal	x1,1681c <__sprint_r>
   112b8:	bne	x10,x0,10620 <_vfprintf_r+0x2e0>
   112bc:	lw	x15,148(x2)
   112c0:	lw	x20,144(x2)
   112c4:	addi	x25,x21,0
   112c8:	jal	x0,1105c <_vfprintf_r+0xd1c>
   112cc:	addi	x12,x2,140
   112d0:	addi	x11,x24,0
   112d4:	addi	x10,x26,0
   112d8:	jal	x1,1681c <__sprint_r>
   112dc:	beq	x10,x0,10b18 <_vfprintf_r+0x7d8>
   112e0:	jal	x0,10620 <_vfprintf_r+0x2e0>
   112e4:	addi	x12,x2,140
   112e8:	addi	x11,x24,0
   112ec:	addi	x10,x26,0
   112f0:	jal	x1,1681c <__sprint_r>
   112f4:	bne	x10,x0,10620 <_vfprintf_r+0x2e0>
   112f8:	lw	x15,148(x2)
   112fc:	addi	x6,x21,0
   11300:	jal	x0,10908 <_vfprintf_r+0x5c8>
   11304:	addi	x12,x2,140
   11308:	addi	x11,x24,0
   1130c:	addi	x10,x26,0
   11310:	jal	x1,1681c <__sprint_r>
   11314:	bne	x10,x0,10620 <_vfprintf_r+0x2e0>
   11318:	lw	x15,148(x2)
   1131c:	addi	x6,x21,0
   11320:	jal	x0,10940 <_vfprintf_r+0x600>
   11324:	lw	x14,24(x2)
   11328:	sb	x0,111(x2)
   1132c:	blt	x14,x0,10f60 <_vfprintf_r+0xc20>
   11330:	andi	x19,x19,-129
   11334:	beq	x15,x0,10594 <_vfprintf_r+0x254>
   11338:	addi	x12,x0,0
   1133c:	jal	x0,10ce4 <_vfprintf_r+0x9a4>
   11340:	lw	x20,116(x2)
   11344:	bge	x0,x20,118c8 <_vfprintf_r+0x1588>
   11348:	lw	x14,56(x2)
   1134c:	lw	x13,60(x2)
   11350:	addi	x20,x14,0
   11354:	bge	x13,x14,1135c <_vfprintf_r+0x101c>
   11358:	addi	x20,x13,0
   1135c:	bge	x0,x20,11388 <_vfprintf_r+0x1048>
   11360:	lw	x14,144(x2)
   11364:	add	x15,x15,x20
   11368:	sw	x8,0(x6)
   1136c:	addi	x14,x14,1
   11370:	sw	x20,4(x6)
   11374:	sw	x15,148(x2)
   11378:	sw	x14,144(x2)
   1137c:	addi	x13,x0,7
   11380:	addi	x6,x6,8
   11384:	blt	x13,x14,119dc <_vfprintf_r+0x169c>
   11388:	blt	x20,x0,11b4c <_vfprintf_r+0x180c>
   1138c:	lw	x14,56(x2)
   11390:	sub	x20,x14,x20
   11394:	bge	x0,x20,11510 <_vfprintf_r+0x11d0>
   11398:	addi	x25,x0,16
   1139c:	sw	x18,48(x2)
   113a0:	lw	x14,144(x2)
   113a4:	bge	x25,x20,114cc <_vfprintf_r+0x118c>
   113a8:	addi	x27,x0,7
   113ac:	jal	x0,113b8 <_vfprintf_r+0x1078>
   113b0:	addi	x20,x20,-16
   113b4:	bge	x25,x20,114cc <_vfprintf_r+0x118c>
   113b8:	addi	x15,x15,16
   113bc:	addi	x14,x14,1
   113c0:	sw	x18,0(x6)
   113c4:	sw	x25,4(x6)
   113c8:	sw	x15,148(x2)
   113cc:	sw	x14,144(x2)
   113d0:	addi	x6,x6,8
   113d4:	bge	x27,x14,113b0 <_vfprintf_r+0x1070>
   113d8:	addi	x12,x2,140
   113dc:	addi	x11,x24,0
   113e0:	addi	x10,x26,0
   113e4:	jal	x1,1681c <__sprint_r>
   113e8:	bne	x10,x0,10620 <_vfprintf_r+0x2e0>
   113ec:	lw	x15,148(x2)
   113f0:	lw	x14,144(x2)
   113f4:	addi	x6,x21,0
   113f8:	jal	x0,113b0 <_vfprintf_r+0x1070>
   113fc:	addi	x12,x2,140
   11400:	addi	x11,x24,0
   11404:	addi	x10,x26,0
   11408:	jal	x1,1681c <__sprint_r>
   1140c:	bne	x10,x0,10620 <_vfprintf_r+0x2e0>
   11410:	lbu	x12,111(x2)
   11414:	lw	x15,148(x2)
   11418:	addi	x6,x21,0
   1141c:	jal	x0,108d4 <_vfprintf_r+0x594>
   11420:	addi	x8,x14,-1
   11424:	bge	x0,x8,1105c <_vfprintf_r+0xd1c>
   11428:	addi	x27,x0,16
   1142c:	sw	x18,48(x2)
   11430:	bge	x27,x8,11664 <_vfprintf_r+0x1324>
   11434:	addi	x14,x0,7
   11438:	jal	x0,11444 <_vfprintf_r+0x1104>
   1143c:	addi	x8,x8,-16
   11440:	bge	x27,x8,11664 <_vfprintf_r+0x1324>
   11444:	addi	x15,x15,16
   11448:	addi	x20,x20,1
   1144c:	sw	x18,0(x25)
   11450:	sw	x27,4(x25)
   11454:	sw	x15,148(x2)
   11458:	sw	x20,144(x2)
   1145c:	addi	x25,x25,8
   11460:	bge	x14,x20,1143c <_vfprintf_r+0x10fc>
   11464:	addi	x12,x2,140
   11468:	addi	x11,x24,0
   1146c:	addi	x10,x26,0
   11470:	sw	x14,24(x2)
   11474:	jal	x1,1681c <__sprint_r>
   11478:	bne	x10,x0,10620 <_vfprintf_r+0x2e0>
   1147c:	lw	x15,148(x2)
   11480:	lw	x20,144(x2)
   11484:	addi	x25,x21,0
   11488:	lw	x14,24(x2)
   1148c:	jal	x0,1143c <_vfprintf_r+0x10fc>
   11490:	lw	x13,48(x2)
   11494:	add	x15,x15,x8
   11498:	sw	x8,4(x6)
   1149c:	sw	x13,0(x6)
   114a0:	addi	x14,x14,1
   114a4:	sw	x15,148(x2)
   114a8:	sw	x14,144(x2)
   114ac:	addi	x13,x0,7
   114b0:	bge	x13,x14,10a38 <_vfprintf_r+0x6f8>
   114b4:	jal	x0,11088 <_vfprintf_r+0xd48>
   114b8:	addi	x15,x0,0
   114bc:	addi	x15,x15,48
   114c0:	addi	x8,x2,191
   114c4:	sb	x15,191(x2)
   114c8:	jal	x0,10b94 <_vfprintf_r+0x854>
   114cc:	lw	x13,48(x2)
   114d0:	add	x15,x15,x20
   114d4:	addi	x14,x14,1
   114d8:	sw	x13,0(x6)
   114dc:	sw	x20,4(x6)
   114e0:	sw	x15,148(x2)
   114e4:	sw	x14,144(x2)
   114e8:	addi	x13,x0,7
   114ec:	addi	x6,x6,8
   114f0:	bge	x13,x14,11510 <_vfprintf_r+0x11d0>
   114f4:	addi	x12,x2,140
   114f8:	addi	x11,x24,0
   114fc:	addi	x10,x26,0
   11500:	jal	x1,1681c <__sprint_r>
   11504:	bne	x10,x0,10620 <_vfprintf_r+0x2e0>
   11508:	lw	x15,148(x2)
   1150c:	addi	x6,x21,0
   11510:	lw	x13,56(x2)
   11514:	lw	x14,116(x2)
   11518:	add	x20,x8,x13
   1151c:	lw	x13,60(x2)
   11520:	blt	x14,x13,115e4 <_vfprintf_r+0x12a4>
   11524:	andi	x13,x19,1
   11528:	bne	x13,x0,115e4 <_vfprintf_r+0x12a4>
   1152c:	lw	x13,60(x2)
   11530:	add	x8,x8,x13
   11534:	sub	x14,x13,x14
   11538:	sub	x8,x8,x20
   1153c:	bge	x14,x8,11544 <_vfprintf_r+0x1204>
   11540:	addi	x8,x14,0
   11544:	bge	x0,x8,11570 <_vfprintf_r+0x1230>
   11548:	lw	x13,144(x2)
   1154c:	add	x15,x15,x8
   11550:	sw	x20,0(x6)
   11554:	addi	x13,x13,1
   11558:	sw	x8,4(x6)
   1155c:	sw	x15,148(x2)
   11560:	sw	x13,144(x2)
   11564:	addi	x12,x0,7
   11568:	addi	x6,x6,8
   1156c:	blt	x12,x13,11a18 <_vfprintf_r+0x16d8>
   11570:	blt	x8,x0,11ba8 <_vfprintf_r+0x1868>
   11574:	sub	x8,x14,x8
   11578:	bge	x0,x8,10a3c <_vfprintf_r+0x6fc>
   1157c:	addi	x20,x0,16
   11580:	sw	x18,48(x2)
   11584:	lw	x14,144(x2)
   11588:	bge	x20,x8,11490 <_vfprintf_r+0x1150>
   1158c:	addi	x25,x0,7
   11590:	jal	x0,1159c <_vfprintf_r+0x125c>
   11594:	addi	x8,x8,-16
   11598:	bge	x20,x8,11490 <_vfprintf_r+0x1150>
   1159c:	addi	x15,x15,16
   115a0:	addi	x14,x14,1
   115a4:	sw	x18,0(x6)
   115a8:	sw	x20,4(x6)
   115ac:	sw	x15,148(x2)
   115b0:	sw	x14,144(x2)
   115b4:	addi	x6,x6,8
   115b8:	bge	x25,x14,11594 <_vfprintf_r+0x1254>
   115bc:	addi	x12,x2,140
   115c0:	addi	x11,x24,0
   115c4:	addi	x10,x26,0
   115c8:	jal	x1,1681c <__sprint_r>
   115cc:	beq	x10,x0,115d4 <_vfprintf_r+0x1294>
   115d0:	jal	x0,10620 <_vfprintf_r+0x2e0>
   115d4:	lw	x15,148(x2)
   115d8:	lw	x14,144(x2)
   115dc:	addi	x6,x21,0
   115e0:	jal	x0,11594 <_vfprintf_r+0x1254>
   115e4:	lw	x13,80(x2)
   115e8:	lw	x12,84(x2)
   115ec:	addi	x6,x6,8
   115f0:	sw	x13,-8(x6)
   115f4:	lw	x13,144(x2)
   115f8:	add	x15,x15,x12
   115fc:	sw	x12,-4(x6)
   11600:	addi	x13,x13,1
   11604:	sw	x15,148(x2)
   11608:	sw	x13,144(x2)
   1160c:	addi	x12,x0,7
   11610:	bge	x12,x13,1152c <_vfprintf_r+0x11ec>
   11614:	addi	x12,x2,140
   11618:	addi	x11,x24,0
   1161c:	addi	x10,x26,0
   11620:	jal	x1,1681c <__sprint_r>
   11624:	beq	x10,x0,1162c <_vfprintf_r+0x12ec>
   11628:	jal	x0,10620 <_vfprintf_r+0x2e0>
   1162c:	lw	x14,116(x2)
   11630:	lw	x15,148(x2)
   11634:	addi	x6,x21,0
   11638:	jal	x0,1152c <_vfprintf_r+0x11ec>
   1163c:	addi	x12,x2,140
   11640:	addi	x11,x24,0
   11644:	addi	x10,x26,0
   11648:	jal	x1,1681c <__sprint_r>
   1164c:	beq	x10,x0,11654 <_vfprintf_r+0x1314>
   11650:	jal	x0,10620 <_vfprintf_r+0x2e0>
   11654:	lw	x15,148(x2)
   11658:	lw	x20,144(x2)
   1165c:	addi	x6,x21,0
   11660:	jal	x0,10fe0 <_vfprintf_r+0xca0>
   11664:	lw	x14,48(x2)
   11668:	add	x15,x15,x8
   1166c:	addi	x20,x20,1
   11670:	sw	x14,0(x25)
   11674:	sw	x8,4(x25)
   11678:	sw	x15,148(x2)
   1167c:	sw	x20,144(x2)
   11680:	addi	x14,x0,7
   11684:	bge	x14,x20,11058 <_vfprintf_r+0xd18>
   11688:	jal	x0,112a8 <_vfprintf_r+0xf68>
   1168c:	addi	x12,x2,140
   11690:	addi	x11,x24,0
   11694:	addi	x10,x26,0
   11698:	jal	x1,1681c <__sprint_r>
   1169c:	beq	x10,x0,116a4 <_vfprintf_r+0x1364>
   116a0:	jal	x0,10620 <_vfprintf_r+0x2e0>
   116a4:	lw	x15,148(x2)
   116a8:	lw	x20,144(x2)
   116ac:	addi	x25,x21,0
   116b0:	jal	x0,1100c <_vfprintf_r+0xccc>
   116b4:	addi	x14,x0,45
   116b8:	sb	x14,111(x2)
   116bc:	lw	x14,24(x2)
   116c0:	sub	x15,x0,x15
   116c4:	blt	x14,x0,11b88 <_vfprintf_r+0x1848>
   116c8:	andi	x19,x19,-129
   116cc:	addi	x12,x0,45
   116d0:	jal	x0,10b6c <_vfprintf_r+0x82c>
   116d4:	lw	x10,68(x2)
   116d8:	lw	x11,72(x2)
   116dc:	sw	x6,20(x2)
   116e0:	jal	x1,163ac <__fpclassifyd>
   116e4:	lw	x6,20(x2)
   116e8:	beq	x10,x0,119a0 <_vfprintf_r+0x1660>
   116ec:	lw	x14,24(x2)
   116f0:	addi	x15,x0,-1
   116f4:	andi	x22,x20,-33
   116f8:	beq	x14,x15,11cfc <_vfprintf_r+0x19bc>
   116fc:	addi	x15,x0,71
   11700:	beq	x22,x15,11ce4 <_vfprintf_r+0x19a4>
   11704:	lw	x15,72(x2)
   11708:	ori	x14,x19,256
   1170c:	sw	x14,48(x2)
   11710:	lw	x25,68(x2)
   11714:	blt	x15,x0,11d60 <_vfprintf_r+0x1a20>
   11718:	addi	x27,x15,0
   1171c:	sw	x0,20(x2)
   11720:	addi	x15,x0,102
   11724:	beq	x20,x15,11d08 <_vfprintf_r+0x19c8>
   11728:	addi	x15,x0,70
   1172c:	beq	x20,x15,11e44 <_vfprintf_r+0x1b04>
   11730:	lw	x15,24(x2)
   11734:	addi	x28,x22,-69
   11738:	sltiu	x28,x28,1
   1173c:	add	x28,x15,x28
   11740:	addi	x15,x2,132
   11744:	sw	x15,0(x2)
   11748:	addi	x12,x25,0
   1174c:	addi	x15,x28,0
   11750:	addi	x13,x27,0
   11754:	addi	x17,x2,120
   11758:	addi	x16,x2,116
   1175c:	addi	x14,x0,2
   11760:	addi	x10,x26,0
   11764:	sw	x6,52(x2)
   11768:	sw	x28,32(x2)
   1176c:	jal	x1,126b8 <_dtoa_r>
   11770:	addi	x15,x0,103
   11774:	addi	x8,x10,0
   11778:	lw	x28,32(x2)
   1177c:	lw	x6,52(x2)
   11780:	beq	x20,x15,11bec <_vfprintf_r+0x18ac>
   11784:	addi	x15,x0,71
   11788:	add	x16,x10,x28
   1178c:	beq	x20,x15,11f98 <_vfprintf_r+0x1c58>
   11790:	addi	x10,x25,0
   11794:	addi	x11,x27,0
   11798:	addi	x12,x0,0
   1179c:	addi	x13,x0,0
   117a0:	sw	x6,52(x2)
   117a4:	sw	x16,32(x2)
   117a8:	jal	x1,19c94 <__eqdf2>
   117ac:	lw	x16,32(x2)
   117b0:	lw	x6,52(x2)
   117b4:	addi	x15,x16,0
   117b8:	beq	x10,x0,117dc <_vfprintf_r+0x149c>
   117bc:	lw	x15,132(x2)
   117c0:	bgeu	x15,x16,117dc <_vfprintf_r+0x149c>
   117c4:	addi	x13,x0,48
   117c8:	addi	x14,x15,1
   117cc:	sw	x14,132(x2)
   117d0:	sb	x13,0(x15)
   117d4:	lw	x15,132(x2)
   117d8:	bltu	x15,x16,117c8 <_vfprintf_r+0x1488>
   117dc:	sub	x15,x15,x8
   117e0:	sw	x15,60(x2)
   117e4:	addi	x15,x0,71
   117e8:	beq	x22,x15,11c00 <_vfprintf_r+0x18c0>
   117ec:	addi	x15,x0,101
   117f0:	bge	x15,x20,11fb0 <_vfprintf_r+0x1c70>
   117f4:	addi	x15,x0,102
   117f8:	beq	x20,x15,11db8 <_vfprintf_r+0x1a78>
   117fc:	lw	x15,116(x2)
   11800:	sw	x15,56(x2)
   11804:	lw	x14,56(x2)
   11808:	lw	x13,60(x2)
   1180c:	addi	x15,x14,0
   11810:	blt	x14,x13,11d78 <_vfprintf_r+0x1a38>
   11814:	andi	x19,x19,1
   11818:	bne	x19,x0,11d9c <_vfprintf_r+0x1a5c>
   1181c:	blt	x14,x0,11fc8 <_vfprintf_r+0x1c88>
   11820:	lw	x14,56(x2)
   11824:	addi	x20,x0,103
   11828:	sw	x14,32(x2)
   1182c:	lw	x14,20(x2)
   11830:	bne	x14,x0,11bb0 <_vfprintf_r+0x1870>
   11834:	lbu	x12,111(x2)
   11838:	sw	x15,20(x2)
   1183c:	lw	x19,48(x2)
   11840:	sw	x0,24(x2)
   11844:	jal	x0,107f4 <_vfprintf_r+0x4b4>
   11848:	lw	x15,40(x2)
   1184c:	addi	x15,x15,7
   11850:	andi	x15,x15,-8
   11854:	lw	x14,0(x15)
   11858:	addi	x15,x15,8
   1185c:	sw	x14,68(x2)
   11860:	lw	x14,-4(x15)
   11864:	sw	x15,40(x2)
   11868:	sw	x14,72(x2)
   1186c:	jal	x0,10e10 <_vfprintf_r+0xad0>
   11870:	lw	x15,0(x14)
   11874:	addi	x14,x14,4
   11878:	sw	x14,40(x2)
   1187c:	jal	x0,10cb0 <_vfprintf_r+0x970>
   11880:	lw	x15,0(x14)
   11884:	addi	x14,x14,4
   11888:	sw	x14,40(x2)
   1188c:	jal	x0,10d6c <_vfprintf_r+0xa2c>
   11890:	lw	x15,24(x2)
   11894:	sb	x0,111(x2)
   11898:	blt	x15,x0,10f64 <_vfprintf_r+0xc24>
   1189c:	andi	x19,x19,-129
   118a0:	jal	x0,10594 <_vfprintf_r+0x254>
   118a4:	addi	x12,x2,140
   118a8:	addi	x11,x24,0
   118ac:	addi	x10,x26,0
   118b0:	jal	x1,1681c <__sprint_r>
   118b4:	beq	x10,x0,118bc <_vfprintf_r+0x157c>
   118b8:	jal	x0,10620 <_vfprintf_r+0x2e0>
   118bc:	lw	x15,148(x2)
   118c0:	addi	x6,x21,0
   118c4:	jal	x0,11108 <_vfprintf_r+0xdc8>
   118c8:	lw	x14,144(x2)
   118cc:	lw	x13,92(x2)
   118d0:	addi	x15,x15,1
   118d4:	addi	x14,x14,1
   118d8:	sw	x13,0(x6)
   118dc:	addi	x13,x0,1
   118e0:	sw	x13,4(x6)
   118e4:	sw	x15,148(x2)
   118e8:	sw	x14,144(x2)
   118ec:	addi	x13,x0,7
   118f0:	addi	x6,x6,8
   118f4:	blt	x13,x14,11a48 <_vfprintf_r+0x1708>
   118f8:	beq	x20,x0,11a00 <_vfprintf_r+0x16c0>
   118fc:	lw	x14,80(x2)
   11900:	lw	x13,84(x2)
   11904:	addi	x6,x6,8
   11908:	sw	x14,-8(x6)
   1190c:	lw	x14,144(x2)
   11910:	add	x15,x13,x15
   11914:	sw	x13,-4(x6)
   11918:	addi	x14,x14,1
   1191c:	sw	x15,148(x2)
   11920:	sw	x14,144(x2)
   11924:	addi	x13,x0,7
   11928:	blt	x13,x14,11cb8 <_vfprintf_r+0x1978>
   1192c:	sub	x20,x0,x20
   11930:	bge	x0,x20,11b0c <_vfprintf_r+0x17cc>
   11934:	addi	x25,x0,16
   11938:	sw	x18,48(x2)
   1193c:	bge	x25,x20,11ac0 <_vfprintf_r+0x1780>
   11940:	addi	x27,x0,7
   11944:	jal	x0,11950 <_vfprintf_r+0x1610>
   11948:	addi	x20,x20,-16
   1194c:	bge	x25,x20,11ac0 <_vfprintf_r+0x1780>
   11950:	addi	x15,x15,16
   11954:	addi	x14,x14,1
   11958:	sw	x18,0(x6)
   1195c:	sw	x25,4(x6)
   11960:	sw	x15,148(x2)
   11964:	sw	x14,144(x2)
   11968:	addi	x6,x6,8
   1196c:	bge	x27,x14,11948 <_vfprintf_r+0x1608>
   11970:	addi	x12,x2,140
   11974:	addi	x11,x24,0
   11978:	addi	x10,x26,0
   1197c:	jal	x1,1681c <__sprint_r>
   11980:	beq	x10,x0,11988 <_vfprintf_r+0x1648>
   11984:	jal	x0,10620 <_vfprintf_r+0x2e0>
   11988:	lw	x15,148(x2)
   1198c:	lw	x14,144(x2)
   11990:	addi	x6,x21,0
   11994:	jal	x0,11948 <_vfprintf_r+0x1608>
   11998:	addi	x10,x0,-1
   1199c:	jal	x0,10634 <_vfprintf_r+0x2f4>
   119a0:	addi	x15,x0,71
   119a4:	blt	x15,x20,11c1c <_vfprintf_r+0x18dc>
   119a8:	lui	x8,0x1b
   119ac:	addi	x8,x8,472 # 1b1d8 <__clz_tab+0x128>
   119b0:	addi	x15,x0,3
   119b4:	sw	x15,20(x2)
   119b8:	andi	x19,x19,-129
   119bc:	lbu	x12,111(x2)
   119c0:	sw	x15,32(x2)
   119c4:	sw	x0,24(x2)
   119c8:	sw	x0,56(x2)
   119cc:	jal	x0,107f4 <_vfprintf_r+0x4b4>
   119d0:	lui	x8,0x1b
   119d4:	addi	x8,x8,464 # 1b1d0 <__clz_tab+0x120>
   119d8:	jal	x0,10e64 <_vfprintf_r+0xb24>
   119dc:	addi	x12,x2,140
   119e0:	addi	x11,x24,0
   119e4:	addi	x10,x26,0
   119e8:	jal	x1,1681c <__sprint_r>
   119ec:	beq	x10,x0,119f4 <_vfprintf_r+0x16b4>
   119f0:	jal	x0,10620 <_vfprintf_r+0x2e0>
   119f4:	lw	x15,148(x2)
   119f8:	addi	x6,x21,0
   119fc:	jal	x0,11388 <_vfprintf_r+0x1048>
   11a00:	lw	x14,60(x2)
   11a04:	bne	x14,x0,118fc <_vfprintf_r+0x15bc>
   11a08:	andi	x14,x19,1
   11a0c:	bne	x14,x0,11a14 <_vfprintf_r+0x16d4>
   11a10:	jal	x0,10a3c <_vfprintf_r+0x6fc>
   11a14:	jal	x0,118fc <_vfprintf_r+0x15bc>
   11a18:	addi	x12,x2,140
   11a1c:	addi	x11,x24,0
   11a20:	addi	x10,x26,0
   11a24:	jal	x1,1681c <__sprint_r>
   11a28:	beq	x10,x0,11a30 <_vfprintf_r+0x16f0>
   11a2c:	jal	x0,10620 <_vfprintf_r+0x2e0>
   11a30:	lw	x14,116(x2)
   11a34:	lw	x13,60(x2)
   11a38:	lw	x15,148(x2)
   11a3c:	addi	x6,x21,0
   11a40:	sub	x14,x13,x14
   11a44:	jal	x0,11570 <_vfprintf_r+0x1230>
   11a48:	addi	x12,x2,140
   11a4c:	addi	x11,x24,0
   11a50:	addi	x10,x26,0
   11a54:	jal	x1,1681c <__sprint_r>
   11a58:	beq	x10,x0,11a60 <_vfprintf_r+0x1720>
   11a5c:	jal	x0,10620 <_vfprintf_r+0x2e0>
   11a60:	lw	x20,116(x2)
   11a64:	lw	x15,148(x2)
   11a68:	addi	x6,x21,0
   11a6c:	bne	x20,x0,118fc <_vfprintf_r+0x15bc>
   11a70:	jal	x0,11a00 <_vfprintf_r+0x16c0>
   11a74:	andi	x15,x19,1
   11a78:	addi	x12,x14,0
   11a7c:	beq	x15,x0,11a90 <_vfprintf_r+0x1750>
   11a80:	addi	x15,x0,48
   11a84:	addi	x8,x2,191
   11a88:	sb	x15,191(x2)
   11a8c:	jal	x0,10b94 <_vfprintf_r+0x854>
   11a90:	sw	x0,32(x2)
   11a94:	addi	x8,x21,0
   11a98:	jal	x0,10b9c <_vfprintf_r+0x85c>
   11a9c:	addi	x12,x2,140
   11aa0:	addi	x11,x24,0
   11aa4:	addi	x10,x26,0
   11aa8:	jal	x1,1681c <__sprint_r>
   11aac:	beq	x10,x0,11ab4 <_vfprintf_r+0x1774>
   11ab0:	jal	x0,10620 <_vfprintf_r+0x2e0>
   11ab4:	lw	x15,148(x2)
   11ab8:	addi	x6,x21,0
   11abc:	jal	x0,1114c <_vfprintf_r+0xe0c>
   11ac0:	lw	x13,48(x2)
   11ac4:	add	x15,x15,x20
   11ac8:	addi	x14,x14,1
   11acc:	sw	x13,0(x6)
   11ad0:	sw	x20,4(x6)
   11ad4:	sw	x15,148(x2)
   11ad8:	sw	x14,144(x2)
   11adc:	addi	x13,x0,7
   11ae0:	addi	x6,x6,8
   11ae4:	bge	x13,x14,11b0c <_vfprintf_r+0x17cc>
   11ae8:	addi	x12,x2,140
   11aec:	addi	x11,x24,0
   11af0:	addi	x10,x26,0
   11af4:	jal	x1,1681c <__sprint_r>
   11af8:	beq	x10,x0,11b00 <_vfprintf_r+0x17c0>
   11afc:	jal	x0,10620 <_vfprintf_r+0x2e0>
   11b00:	lw	x15,148(x2)
   11b04:	lw	x14,144(x2)
   11b08:	addi	x6,x21,0
   11b0c:	lw	x13,60(x2)
   11b10:	addi	x14,x14,1
   11b14:	sw	x8,0(x6)
   11b18:	add	x15,x13,x15
   11b1c:	jal	x0,10a24 <_vfprintf_r+0x6e4>
   11b20:	addi	x10,x8,0
   11b24:	jal	x1,166a4 <strlen>
   11b28:	sw	x10,32(x2)
   11b2c:	addi	x15,x10,0
   11b30:	lw	x6,20(x2)
   11b34:	blt	x10,x0,11b3c <_vfprintf_r+0x17fc>
   11b38:	jal	x0,107e0 <_vfprintf_r+0x4a0>
   11b3c:	addi	x15,x0,0
   11b40:	jal	x0,107e0 <_vfprintf_r+0x4a0>
   11b44:	addi	x15,x0,-1
   11b48:	jal	x0,10760 <_vfprintf_r+0x420>
   11b4c:	addi	x20,x0,0
   11b50:	jal	x0,1138c <_vfprintf_r+0x104c>
   11b54:	addi	x14,x0,6
   11b58:	bgeu	x14,x15,11b60 <_vfprintf_r+0x1820>
   11b5c:	addi	x15,x14,0
   11b60:	sw	x15,32(x2)
   11b64:	blt	x15,x0,11ef0 <_vfprintf_r+0x1bb0>
   11b68:	lui	x8,0x1b
   11b6c:	sw	x15,20(x2)
   11b70:	sw	x22,40(x2)
   11b74:	addi	x12,x0,0
   11b78:	sw	x0,24(x2)
   11b7c:	sw	x0,56(x2)
   11b80:	addi	x8,x8,520 # 1b208 <__clz_tab+0x158>
   11b84:	jal	x0,10804 <_vfprintf_r+0x4c4>
   11b88:	addi	x12,x0,45
   11b8c:	addi	x14,x0,1
   11b90:	addi	x13,x0,1
   11b94:	bne	x14,x13,11b9c <_vfprintf_r+0x185c>
   11b98:	jal	x0,10b6c <_vfprintf_r+0x82c>
   11b9c:	addi	x13,x0,2
   11ba0:	beq	x14,x13,10ce4 <_vfprintf_r+0x9a4>
   11ba4:	jal	x0,106d4 <_vfprintf_r+0x394>
   11ba8:	addi	x8,x0,0
   11bac:	jal	x0,11574 <_vfprintf_r+0x1234>
   11bb0:	addi	x14,x0,45
   11bb4:	sb	x14,111(x2)
   11bb8:	sw	x15,20(x2)
   11bbc:	lw	x19,48(x2)
   11bc0:	addi	x12,x0,45
   11bc4:	sw	x0,24(x2)
   11bc8:	jal	x0,107f8 <_vfprintf_r+0x4b8>
   11bcc:	addi	x19,x14,0
   11bd0:	addi	x12,x0,0
   11bd4:	addi	x14,x0,2
   11bd8:	jal	x0,11b90 <_vfprintf_r+0x1850>
   11bdc:	addi	x15,x0,45
   11be0:	sb	x15,111(x2)
   11be4:	addi	x12,x0,45
   11be8:	jal	x0,10e54 <_vfprintf_r+0xb14>
   11bec:	andi	x15,x19,1
   11bf0:	add	x16,x10,x28
   11bf4:	bne	x15,x0,11790 <_vfprintf_r+0x1450>
   11bf8:	lw	x15,132(x2)
   11bfc:	jal	x0,117dc <_vfprintf_r+0x149c>
   11c00:	lw	x15,116(x2)
   11c04:	addi	x14,x0,-3
   11c08:	blt	x15,x14,11c48 <_vfprintf_r+0x1908>
   11c0c:	lw	x14,24(x2)
   11c10:	blt	x14,x15,11c48 <_vfprintf_r+0x1908>
   11c14:	sw	x15,56(x2)
   11c18:	jal	x0,11804 <_vfprintf_r+0x14c4>
   11c1c:	lui	x8,0x1b
   11c20:	addi	x8,x8,476 # 1b1dc <__clz_tab+0x12c>
   11c24:	jal	x0,119b0 <_vfprintf_r+0x1670>
   11c28:	lw	x15,24(x2)
   11c2c:	lbu	x12,111(x2)
   11c30:	sw	x22,40(x2)
   11c34:	sw	x15,20(x2)
   11c38:	sw	x15,32(x2)
   11c3c:	sw	x0,24(x2)
   11c40:	sw	x0,56(x2)
   11c44:	jal	x0,107f4 <_vfprintf_r+0x4b4>
   11c48:	addi	x20,x20,-2
   11c4c:	addi	x15,x15,-1
   11c50:	sw	x15,116(x2)
   11c54:	sb	x20,124(x2)
   11c58:	blt	x15,x0,11f30 <_vfprintf_r+0x1bf0>
   11c5c:	addi	x14,x0,43
   11c60:	sb	x14,125(x2)
   11c64:	addi	x12,x0,9
   11c68:	blt	x12,x15,11ddc <_vfprintf_r+0x1a9c>
   11c6c:	addi	x15,x15,48
   11c70:	addi	x14,x0,48
   11c74:	sb	x15,127(x2)
   11c78:	sb	x14,126(x2)
   11c7c:	addi	x15,x2,128
   11c80:	addi	x14,x2,124
   11c84:	sub	x15,x15,x14
   11c88:	lw	x14,60(x2)
   11c8c:	sw	x15,88(x2)
   11c90:	add	x15,x15,x14
   11c94:	sw	x15,32(x2)
   11c98:	addi	x15,x0,1
   11c9c:	bge	x15,x14,11f40 <_vfprintf_r+0x1c00>
   11ca0:	lw	x15,32(x2)
   11ca4:	addi	x15,x15,1
   11ca8:	sw	x15,32(x2)
   11cac:	blt	x15,x0,11f54 <_vfprintf_r+0x1c14>
   11cb0:	sw	x0,56(x2)
   11cb4:	jal	x0,1182c <_vfprintf_r+0x14ec>
   11cb8:	addi	x12,x2,140
   11cbc:	addi	x11,x24,0
   11cc0:	addi	x10,x26,0
   11cc4:	jal	x1,1681c <__sprint_r>
   11cc8:	beq	x10,x0,11cd0 <_vfprintf_r+0x1990>
   11ccc:	jal	x0,10620 <_vfprintf_r+0x2e0>
   11cd0:	lw	x20,116(x2)
   11cd4:	lw	x15,148(x2)
   11cd8:	lw	x14,144(x2)
   11cdc:	addi	x6,x21,0
   11ce0:	jal	x0,1192c <_vfprintf_r+0x15ec>
   11ce4:	lw	x15,24(x2)
   11ce8:	bne	x15,x0,11704 <_vfprintf_r+0x13c4>
   11cec:	sw	x8,24(x2)
   11cf0:	jal	x0,11704 <_vfprintf_r+0x13c4>
   11cf4:	sw	x0,24(x2)
   11cf8:	jal	x0,10500 <_vfprintf_r+0x1c0>
   11cfc:	addi	x15,x0,6
   11d00:	sw	x15,24(x2)
   11d04:	jal	x0,11704 <_vfprintf_r+0x13c4>
   11d08:	addi	x15,x2,132
   11d0c:	sw	x15,0(x2)
   11d10:	lw	x15,24(x2)
   11d14:	addi	x16,x2,116
   11d18:	addi	x12,x25,0
   11d1c:	addi	x13,x27,0
   11d20:	addi	x17,x2,120
   11d24:	addi	x14,x0,3
   11d28:	addi	x10,x26,0
   11d2c:	sw	x6,32(x2)
   11d30:	jal	x1,126b8 <_dtoa_r>
   11d34:	lw	x15,24(x2)
   11d38:	lw	x6,32(x2)
   11d3c:	addi	x8,x10,0
   11d40:	add	x16,x10,x15
   11d44:	addi	x28,x15,0
   11d48:	lbu	x14,0(x8)
   11d4c:	addi	x15,x0,48
   11d50:	beq	x14,x15,11eac <_vfprintf_r+0x1b6c>
   11d54:	lw	x28,116(x2)
   11d58:	add	x16,x16,x28
   11d5c:	jal	x0,11790 <_vfprintf_r+0x1450>
   11d60:	lw	x14,72(x2)
   11d64:	lui	x15,0x80000
   11d68:	xor	x27,x14,x15
   11d6c:	addi	x15,x0,45
   11d70:	sw	x15,20(x2)
   11d74:	jal	x0,11720 <_vfprintf_r+0x13e0>
   11d78:	lw	x14,56(x2)
   11d7c:	addi	x15,x0,1
   11d80:	bge	x0,x14,11f24 <_vfprintf_r+0x1be4>
   11d84:	lw	x14,60(x2)
   11d88:	add	x15,x15,x14
   11d8c:	sw	x15,32(x2)
   11d90:	blt	x15,x0,11dac <_vfprintf_r+0x1a6c>
   11d94:	addi	x20,x0,103
   11d98:	jal	x0,1182c <_vfprintf_r+0x14ec>
   11d9c:	lw	x15,56(x2)
   11da0:	addi	x15,x15,1 # 80000001 <_gp+0x7ffe2a51>
   11da4:	sw	x15,32(x2)
   11da8:	bge	x15,x0,11d94 <_vfprintf_r+0x1a54>
   11dac:	addi	x15,x0,0
   11db0:	addi	x20,x0,103
   11db4:	jal	x0,1182c <_vfprintf_r+0x14ec>
   11db8:	lw	x15,116(x2)
   11dbc:	sw	x15,56(x2)
   11dc0:	bge	x0,x15,11ef8 <_vfprintf_r+0x1bb8>
   11dc4:	lw	x14,24(x2)
   11dc8:	bne	x14,x0,11e8c <_vfprintf_r+0x1b4c>
   11dcc:	andi	x19,x19,1
   11dd0:	bne	x19,x0,11e8c <_vfprintf_r+0x1b4c>
   11dd4:	sw	x15,32(x2)
   11dd8:	jal	x0,1182c <_vfprintf_r+0x14ec>
   11ddc:	addi	x11,x2,139
   11de0:	addi	x14,x11,0
   11de4:	addi	x10,x0,10
   11de8:	rem	x13,x15,x10
   11dec:	addi	x14,x14,-1
   11df0:	div	x15,x15,x10
   11df4:	addi	x13,x13,48
   11df8:	sb	x13,0(x14)
   11dfc:	blt	x12,x15,11de8 <_vfprintf_r+0x1aa8>
   11e00:	addi	x15,x15,48
   11e04:	andi	x15,x15,255
   11e08:	addi	x13,x14,-1
   11e0c:	sb	x15,-1(x14)
   11e10:	bgeu	x13,x11,11f90 <_vfprintf_r+0x1c50>
   11e14:	addi	x12,x2,126
   11e18:	jal	x0,11e20 <_vfprintf_r+0x1ae0>
   11e1c:	lbu	x15,0(x13)
   11e20:	addi	x12,x12,1
   11e24:	addi	x13,x13,1
   11e28:	sb	x15,-1(x12)
   11e2c:	bne	x13,x11,11e1c <_vfprintf_r+0x1adc>
   11e30:	addi	x15,x2,140
   11e34:	sub	x15,x15,x14
   11e38:	addi	x14,x2,126
   11e3c:	add	x15,x14,x15
   11e40:	jal	x0,11c80 <_vfprintf_r+0x1940>
   11e44:	addi	x15,x2,132
   11e48:	sw	x15,0(x2)
   11e4c:	lw	x15,24(x2)
   11e50:	addi	x12,x25,0
   11e54:	addi	x13,x27,0
   11e58:	addi	x17,x2,120
   11e5c:	addi	x16,x2,116
   11e60:	addi	x14,x0,3
   11e64:	addi	x10,x26,0
   11e68:	sw	x6,32(x2)
   11e6c:	jal	x1,126b8 <_dtoa_r>
   11e70:	lw	x28,24(x2)
   11e74:	lw	x6,32(x2)
   11e78:	addi	x8,x10,0
   11e7c:	addi	x15,x0,70
   11e80:	add	x16,x8,x28
   11e84:	beq	x20,x15,11d48 <_vfprintf_r+0x1a08>
   11e88:	jal	x0,11790 <_vfprintf_r+0x1450>
   11e8c:	lw	x15,24(x2)
   11e90:	lw	x14,56(x2)
   11e94:	addi	x15,x15,1
   11e98:	add	x15,x14,x15
   11e9c:	sw	x15,32(x2)
   11ea0:	bge	x15,x0,1182c <_vfprintf_r+0x14ec>
   11ea4:	addi	x15,x0,0
   11ea8:	jal	x0,1182c <_vfprintf_r+0x14ec>
   11eac:	addi	x10,x25,0
   11eb0:	addi	x11,x27,0
   11eb4:	addi	x12,x0,0
   11eb8:	addi	x13,x0,0
   11ebc:	sw	x6,56(x2)
   11ec0:	sw	x16,52(x2)
   11ec4:	sw	x28,32(x2)
   11ec8:	jal	x1,19c90 <__nedf2>
   11ecc:	lw	x16,52(x2)
   11ed0:	lw	x6,56(x2)
   11ed4:	beq	x10,x0,11d54 <_vfprintf_r+0x1a14>
   11ed8:	lw	x28,32(x2)
   11edc:	addi	x15,x0,1
   11ee0:	sub	x28,x15,x28
   11ee4:	sw	x28,116(x2)
   11ee8:	add	x16,x16,x28
   11eec:	jal	x0,11790 <_vfprintf_r+0x1450>
   11ef0:	addi	x15,x0,0
   11ef4:	jal	x0,11b68 <_vfprintf_r+0x1828>
   11ef8:	lw	x15,24(x2)
   11efc:	bne	x15,x0,11f10 <_vfprintf_r+0x1bd0>
   11f00:	addi	x15,x0,1
   11f04:	and	x19,x19,x15
   11f08:	sw	x15,32(x2)
   11f0c:	beq	x19,x0,1182c <_vfprintf_r+0x14ec>
   11f10:	lw	x15,24(x2)
   11f14:	addi	x15,x15,2
   11f18:	sw	x15,32(x2)
   11f1c:	bge	x15,x0,1182c <_vfprintf_r+0x14ec>
   11f20:	jal	x0,11ea4 <_vfprintf_r+0x1b64>
   11f24:	addi	x15,x0,2
   11f28:	sub	x15,x15,x14
   11f2c:	jal	x0,11d84 <_vfprintf_r+0x1a44>
   11f30:	addi	x14,x0,45
   11f34:	sub	x15,x0,x15
   11f38:	sb	x14,125(x2)
   11f3c:	jal	x0,11c64 <_vfprintf_r+0x1924>
   11f40:	and	x19,x19,x15
   11f44:	bne	x19,x0,11ca0 <_vfprintf_r+0x1960>
   11f48:	lw	x14,32(x2)
   11f4c:	addi	x15,x14,0
   11f50:	bge	x14,x0,11cb0 <_vfprintf_r+0x1970>
   11f54:	addi	x15,x0,0
   11f58:	jal	x0,11cb0 <_vfprintf_r+0x1970>
   11f5c:	lw	x15,40(x2)
   11f60:	lw	x17,0(x15)
   11f64:	addi	x15,x15,4
   11f68:	sw	x15,40(x2)
   11f6c:	sw	x17,24(x2)
   11f70:	blt	x17,x0,11f78 <_vfprintf_r+0x1c38>
   11f74:	jal	x0,104f8 <_vfprintf_r+0x1b8>
   11f78:	addi	x15,x0,-1
   11f7c:	sw	x15,24(x2)
   11f80:	jal	x0,104f8 <_vfprintf_r+0x1b8>
   11f84:	sb	x10,111(x2)
   11f88:	ori	x19,x19,16
   11f8c:	jal	x0,10e90 <_vfprintf_r+0xb50>
   11f90:	addi	x15,x2,126
   11f94:	jal	x0,11c80 <_vfprintf_r+0x1940>
   11f98:	andi	x15,x19,1
   11f9c:	bne	x15,x0,11e7c <_vfprintf_r+0x1b3c>
   11fa0:	lw	x15,132(x2)
   11fa4:	sub	x15,x15,x8
   11fa8:	sw	x15,60(x2)
   11fac:	beq	x22,x20,11c00 <_vfprintf_r+0x18c0>
   11fb0:	lw	x15,116(x2)
   11fb4:	jal	x0,11c4c <_vfprintf_r+0x190c>
   11fb8:	sb	x10,111(x2)
   11fbc:	jal	x0,10f1c <_vfprintf_r+0xbdc>
   11fc0:	sb	x10,111(x2)
   11fc4:	jal	x0,10ec4 <_vfprintf_r+0xb84>
   11fc8:	addi	x15,x0,0
   11fcc:	jal	x0,11820 <_vfprintf_r+0x14e0>
   11fd0:	sb	x10,111(x2)
   11fd4:	jal	x0,10c8c <_vfprintf_r+0x94c>
   11fd8:	sb	x10,111(x2)
   11fdc:	ori	x19,x19,16
   11fe0:	jal	x0,10c44 <_vfprintf_r+0x904>
   11fe4:	sb	x10,111(x2)
   11fe8:	ori	x19,x19,16
   11fec:	jal	x0,10bf8 <_vfprintf_r+0x8b8>
   11ff0:	sb	x10,111(x2)
   11ff4:	jal	x0,10b3c <_vfprintf_r+0x7fc>
   11ff8:	sb	x10,111(x2)
   11ffc:	jal	x0,10694 <_vfprintf_r+0x354>
   12000:	sb	x10,111(x2)
   12004:	jal	x0,10d54 <_vfprintf_r+0xa14>
   12008:	sb	x10,111(x2)
   1200c:	jal	x0,10de4 <_vfprintf_r+0xaa4>
   12010:	sb	x10,111(x2)
   12014:	jal	x0,10da8 <_vfprintf_r+0xa68>

00012018 <vfprintf>:
   12018:	addi	x13,x12,0
   1201c:	addi	x12,x11,0
   12020:	addi	x11,x10,0
   12024:	lw	x10,-2040(x3) # 1cdb8 <_impure_ptr>
   12028:	jal	x0,10340 <_vfprintf_r>

0001202c <__sbprintf>:
   1202c:	lhu	x15,12(x11)
   12030:	lw	x28,104(x11)
   12034:	lhu	x6,14(x11)
   12038:	lw	x17,28(x11)
   1203c:	lw	x16,36(x11)
   12040:	addi	x2,x2,-1152
   12044:	andi	x15,x15,-3
   12048:	addi	x14,x0,1024
   1204c:	sw	x8,1144(x2)
   12050:	sh	x15,12(x2)
   12054:	addi	x8,x11,0
   12058:	addi	x15,x2,112
   1205c:	addi	x11,x2,0
   12060:	sw	x9,1140(x2)
   12064:	sw	x18,1136(x2)
   12068:	sw	x1,1148(x2)
   1206c:	addi	x18,x10,0
   12070:	sw	x28,104(x2)
   12074:	sh	x6,14(x2)
   12078:	sw	x17,28(x2)
   1207c:	sw	x16,36(x2)
   12080:	sw	x15,0(x2)
   12084:	sw	x15,16(x2)
   12088:	sw	x14,8(x2)
   1208c:	sw	x14,20(x2)
   12090:	sw	x0,24(x2)
   12094:	jal	x1,10340 <_vfprintf_r>
   12098:	addi	x9,x10,0
   1209c:	blt	x10,x0,120b0 <__sbprintf+0x84>
   120a0:	addi	x11,x2,0
   120a4:	addi	x10,x18,0
   120a8:	jal	x1,13e04 <_fflush_r>
   120ac:	bne	x10,x0,120e4 <__sbprintf+0xb8>
   120b0:	lhu	x15,12(x2)
   120b4:	andi	x15,x15,64
   120b8:	beq	x15,x0,120c8 <__sbprintf+0x9c>
   120bc:	lhu	x15,12(x8)
   120c0:	ori	x15,x15,64
   120c4:	sh	x15,12(x8)
   120c8:	lw	x1,1148(x2)
   120cc:	addi	x10,x9,0
   120d0:	lw	x8,1144(x2)
   120d4:	lw	x9,1140(x2)
   120d8:	lw	x18,1136(x2)
   120dc:	addi	x2,x2,1152
   120e0:	jalr	x0,x1,0
   120e4:	addi	x9,x0,-1
   120e8:	jal	x0,120b0 <__sbprintf+0x84>

000120ec <__swsetup_r>:
   120ec:	lw	x15,-2040(x3) # 1cdb8 <_impure_ptr>
   120f0:	addi	x2,x2,-16
   120f4:	sw	x8,8(x2)
   120f8:	sw	x9,4(x2)
   120fc:	sw	x1,12(x2)
   12100:	addi	x9,x10,0
   12104:	addi	x8,x11,0
   12108:	beq	x15,x0,12114 <__swsetup_r+0x28>
   1210c:	lw	x14,56(x15)
   12110:	beq	x14,x0,121e8 <__swsetup_r+0xfc>
   12114:	lh	x14,12(x8)
   12118:	slli	x15,x14,0x10
   1211c:	srli	x15,x15,0x10
   12120:	andi	x13,x15,8
   12124:	beq	x13,x0,12168 <__swsetup_r+0x7c>
   12128:	lw	x13,16(x8)
   1212c:	beq	x13,x0,12190 <__swsetup_r+0xa4>
   12130:	andi	x14,x15,1
   12134:	bne	x14,x0,121b4 <__swsetup_r+0xc8>
   12138:	andi	x15,x15,2
   1213c:	addi	x14,x0,0
   12140:	bne	x15,x0,12148 <__swsetup_r+0x5c>
   12144:	lw	x14,20(x8)
   12148:	sw	x14,8(x8)
   1214c:	addi	x10,x0,0
   12150:	beq	x13,x0,121cc <__swsetup_r+0xe0>
   12154:	lw	x1,12(x2)
   12158:	lw	x8,8(x2)
   1215c:	lw	x9,4(x2)
   12160:	addi	x2,x2,16
   12164:	jalr	x0,x1,0
   12168:	andi	x13,x15,16
   1216c:	beq	x13,x0,12228 <__swsetup_r+0x13c>
   12170:	andi	x15,x15,4
   12174:	bne	x15,x0,121f4 <__swsetup_r+0x108>
   12178:	lw	x13,16(x8)
   1217c:	ori	x15,x14,8
   12180:	sh	x15,12(x8)
   12184:	slli	x15,x15,0x10
   12188:	srli	x15,x15,0x10
   1218c:	bne	x13,x0,12130 <__swsetup_r+0x44>
   12190:	andi	x14,x15,640
   12194:	addi	x12,x0,512
   12198:	beq	x14,x12,12130 <__swsetup_r+0x44>
   1219c:	addi	x11,x8,0
   121a0:	addi	x10,x9,0
   121a4:	jal	x1,1480c <__smakebuf_r>
   121a8:	lhu	x15,12(x8)
   121ac:	lw	x13,16(x8)
   121b0:	jal	x0,12130 <__swsetup_r+0x44>
   121b4:	lw	x15,20(x8)
   121b8:	sw	x0,8(x8)
   121bc:	addi	x10,x0,0
   121c0:	sub	x15,x0,x15
   121c4:	sw	x15,24(x8)
   121c8:	bne	x13,x0,12154 <__swsetup_r+0x68>
   121cc:	lh	x15,12(x8)
   121d0:	andi	x14,x15,128
   121d4:	beq	x14,x0,12154 <__swsetup_r+0x68>
   121d8:	ori	x15,x15,64
   121dc:	sh	x15,12(x8)
   121e0:	addi	x10,x0,-1
   121e4:	jal	x0,12154 <__swsetup_r+0x68>
   121e8:	addi	x10,x15,0
   121ec:	jal	x1,141b4 <__sinit>
   121f0:	jal	x0,12114 <__swsetup_r+0x28>
   121f4:	lw	x11,48(x8)
   121f8:	beq	x11,x0,12214 <__swsetup_r+0x128>
   121fc:	addi	x15,x8,64
   12200:	beq	x11,x15,12210 <__swsetup_r+0x124>
   12204:	addi	x10,x9,0
   12208:	jal	x1,142f4 <_free_r>
   1220c:	lh	x14,12(x8)
   12210:	sw	x0,48(x8)
   12214:	lw	x13,16(x8)
   12218:	andi	x14,x14,-37
   1221c:	sw	x0,4(x8)
   12220:	sw	x13,0(x8)
   12224:	jal	x0,1217c <__swsetup_r+0x90>
   12228:	addi	x15,x0,9
   1222c:	sw	x15,0(x9)
   12230:	ori	x14,x14,64
   12234:	sh	x14,12(x8)
   12238:	addi	x10,x0,-1
   1223c:	jal	x0,12154 <__swsetup_r+0x68>

00012240 <__register_exitproc>:
   12240:	addi	x2,x2,-32
   12244:	sw	x8,24(x2)
   12248:	lw	x8,-2044(x3) # 1cdb4 <_global_impure_ptr>
   1224c:	sw	x9,20(x2)
   12250:	addi	x9,x10,0
   12254:	lw	x10,328(x8)
   12258:	sw	x18,16(x2)
   1225c:	sw	x19,12(x2)
   12260:	sw	x20,8(x2)
   12264:	sw	x1,28(x2)
   12268:	addi	x18,x11,0
   1226c:	addi	x20,x12,0
   12270:	addi	x19,x13,0
   12274:	beq	x10,x0,12334 <__register_exitproc+0xf4>
   12278:	lw	x15,4(x10)
   1227c:	addi	x14,x0,31
   12280:	addi	x11,x15,1
   12284:	bge	x14,x15,122c4 <__register_exitproc+0x84>
   12288:	lui	x15,0x0
   1228c:	addi	x15,x15,0 # 0 <_ftext-0x10000>
   12290:	beq	x15,x0,12340 <__register_exitproc+0x100>
   12294:	addi	x10,x0,400
   12298:	auipc	x6,0xfffee
   1229c:	jalr	x1,x6,-664 # 0 <_ftext-0x10000>
   122a0:	beq	x10,x0,12340 <__register_exitproc+0x100>
   122a4:	lw	x15,328(x8)
   122a8:	sw	x0,4(x10)
   122ac:	addi	x11,x0,1
   122b0:	sw	x15,0(x10)
   122b4:	sw	x10,328(x8)
   122b8:	sw	x0,392(x10)
   122bc:	sw	x0,396(x10)
   122c0:	addi	x15,x0,0
   122c4:	slli	x14,x15,0x2
   122c8:	bne	x9,x0,122fc <__register_exitproc+0xbc>
   122cc:	sw	x11,4(x10)
   122d0:	add	x10,x10,x14
   122d4:	sw	x18,8(x10)
   122d8:	addi	x10,x0,0
   122dc:	lw	x1,28(x2)
   122e0:	lw	x8,24(x2)
   122e4:	lw	x9,20(x2)
   122e8:	lw	x18,16(x2)
   122ec:	lw	x19,12(x2)
   122f0:	lw	x20,8(x2)
   122f4:	addi	x2,x2,32
   122f8:	jalr	x0,x1,0
   122fc:	add	x13,x10,x14
   12300:	sw	x20,136(x13)
   12304:	lw	x16,392(x10)
   12308:	addi	x12,x0,1
   1230c:	sll	x15,x12,x15
   12310:	or	x12,x16,x15
   12314:	sw	x12,392(x10)
   12318:	sw	x19,264(x13)
   1231c:	addi	x13,x0,2
   12320:	bne	x9,x13,122cc <__register_exitproc+0x8c>
   12324:	lw	x13,396(x10)
   12328:	or	x15,x13,x15
   1232c:	sw	x15,396(x10)
   12330:	jal	x0,122cc <__register_exitproc+0x8c>
   12334:	addi	x10,x8,332
   12338:	sw	x10,328(x8)
   1233c:	jal	x0,12278 <__register_exitproc+0x38>
   12340:	addi	x10,x0,-1
   12344:	jal	x0,122dc <__register_exitproc+0x9c>

00012348 <__call_exitprocs>:
   12348:	addi	x2,x2,-64
   1234c:	sw	x23,28(x2)
   12350:	lw	x23,-2044(x3) # 1cdb4 <_global_impure_ptr>
   12354:	sw	x22,32(x2)
   12358:	lui	x22,0x0
   1235c:	sw	x18,48(x2)
   12360:	sw	x20,40(x2)
   12364:	sw	x21,36(x2)
   12368:	sw	x24,24(x2)
   1236c:	sw	x25,20(x2)
   12370:	sw	x1,60(x2)
   12374:	sw	x8,56(x2)
   12378:	sw	x9,52(x2)
   1237c:	sw	x19,44(x2)
   12380:	sw	x26,16(x2)
   12384:	sw	x27,12(x2)
   12388:	addi	x21,x10,0
   1238c:	addi	x18,x11,0
   12390:	addi	x24,x23,328
   12394:	addi	x20,x0,1
   12398:	addi	x25,x0,-1
   1239c:	addi	x22,x22,0 # 0 <_ftext-0x10000>
   123a0:	lw	x19,328(x23)
   123a4:	beq	x19,x0,12404 <__call_exitprocs+0xbc>
   123a8:	addi	x27,x24,0
   123ac:	lw	x8,4(x19)
   123b0:	slli	x9,x8,0x2
   123b4:	addi	x8,x8,-1
   123b8:	add	x9,x19,x9
   123bc:	blt	x8,x0,123d8 <__call_exitprocs+0x90>
   123c0:	beq	x18,x0,12440 <__call_exitprocs+0xf8>
   123c4:	lw	x15,260(x9)
   123c8:	beq	x18,x15,12440 <__call_exitprocs+0xf8>
   123cc:	addi	x8,x8,-1
   123d0:	addi	x9,x9,-4
   123d4:	bne	x8,x25,123c0 <__call_exitprocs+0x78>
   123d8:	beq	x22,x0,12404 <__call_exitprocs+0xbc>
   123dc:	lw	x15,4(x19)
   123e0:	bne	x15,x0,124b4 <__call_exitprocs+0x16c>
   123e4:	lw	x15,0(x19)
   123e8:	beq	x15,x0,124c8 <__call_exitprocs+0x180>
   123ec:	addi	x10,x19,0
   123f0:	sw	x15,0(x27)
   123f4:	auipc	x6,0xfffee
   123f8:	jalr	x1,x6,-1012 # 0 <_ftext-0x10000>
   123fc:	lw	x19,0(x27)
   12400:	bne	x19,x0,123ac <__call_exitprocs+0x64>
   12404:	lw	x1,60(x2)
   12408:	lw	x8,56(x2)
   1240c:	lw	x9,52(x2)
   12410:	lw	x18,48(x2)
   12414:	lw	x19,44(x2)
   12418:	lw	x20,40(x2)
   1241c:	lw	x21,36(x2)
   12420:	lw	x22,32(x2)
   12424:	lw	x23,28(x2)
   12428:	lw	x24,24(x2)
   1242c:	lw	x25,20(x2)
   12430:	lw	x26,16(x2)
   12434:	lw	x27,12(x2)
   12438:	addi	x2,x2,64
   1243c:	jalr	x0,x1,0
   12440:	lw	x15,4(x19)
   12444:	lw	x14,4(x9)
   12448:	addi	x15,x15,-1
   1244c:	beq	x15,x8,124a0 <__call_exitprocs+0x158>
   12450:	sw	x0,4(x9)
   12454:	beq	x14,x0,123cc <__call_exitprocs+0x84>
   12458:	lw	x15,392(x19)
   1245c:	sll	x13,x20,x8
   12460:	lw	x26,4(x19)
   12464:	and	x15,x13,x15
   12468:	beq	x15,x0,12498 <__call_exitprocs+0x150>
   1246c:	lw	x15,396(x19)
   12470:	and	x13,x13,x15
   12474:	bne	x13,x0,124a8 <__call_exitprocs+0x160>
   12478:	lw	x11,132(x9)
   1247c:	addi	x10,x21,0
   12480:	jalr	x1,x14,0
   12484:	lw	x15,4(x19)
   12488:	bne	x15,x26,123a0 <__call_exitprocs+0x58>
   1248c:	lw	x15,0(x27)
   12490:	beq	x15,x19,123cc <__call_exitprocs+0x84>
   12494:	jal	x0,123a0 <__call_exitprocs+0x58>
   12498:	jalr	x1,x14,0
   1249c:	jal	x0,12484 <__call_exitprocs+0x13c>
   124a0:	sw	x8,4(x19)
   124a4:	jal	x0,12454 <__call_exitprocs+0x10c>
   124a8:	lw	x10,132(x9)
   124ac:	jalr	x1,x14,0
   124b0:	jal	x0,12484 <__call_exitprocs+0x13c>
   124b4:	lw	x15,0(x19)
   124b8:	addi	x27,x19,0
   124bc:	addi	x19,x15,0
   124c0:	bne	x19,x0,123ac <__call_exitprocs+0x64>
   124c4:	jal	x0,12404 <__call_exitprocs+0xbc>
   124c8:	addi	x15,x0,0
   124cc:	jal	x0,124b8 <__call_exitprocs+0x170>

000124d0 <quorem>:
   124d0:	addi	x2,x2,-32
   124d4:	sw	x18,16(x2)
   124d8:	lw	x15,16(x10)
   124dc:	lw	x18,16(x11)
   124e0:	sw	x1,28(x2)
   124e4:	sw	x8,24(x2)
   124e8:	sw	x9,20(x2)
   124ec:	sw	x19,12(x2)
   124f0:	sw	x20,8(x2)
   124f4:	sw	x21,4(x2)
   124f8:	blt	x15,x18,126b0 <quorem+0x1e0>
   124fc:	addi	x18,x18,-1
   12500:	slli	x30,x18,0x2
   12504:	addi	x8,x11,20
   12508:	add	x19,x8,x30
   1250c:	addi	x20,x10,20
   12510:	add	x30,x20,x30
   12514:	lw	x15,0(x19)
   12518:	lw	x9,0(x30)
   1251c:	addi	x15,x15,1
   12520:	divu	x9,x9,x15
   12524:	beq	x9,x0,125e0 <quorem+0x110>
   12528:	lui	x6,0x10
   1252c:	addi	x29,x8,0
   12530:	addi	x28,x20,0
   12534:	addi	x12,x0,0
   12538:	addi	x14,x0,0
   1253c:	addi	x6,x6,-1 # ffff <_ftext-0x1>
   12540:	addi	x29,x29,4
   12544:	lw	x16,-4(x29)
   12548:	lw	x13,0(x28)
   1254c:	addi	x28,x28,4
   12550:	and	x17,x16,x6
   12554:	mul	x17,x17,x9
   12558:	srli	x16,x16,0x10
   1255c:	and	x15,x13,x6
   12560:	srli	x13,x13,0x10
   12564:	mul	x16,x16,x9
   12568:	add	x17,x17,x12
   1256c:	srli	x12,x17,0x10
   12570:	and	x17,x17,x6
   12574:	sub	x14,x14,x17
   12578:	add	x15,x14,x15
   1257c:	srai	x14,x15,0x10
   12580:	and	x15,x15,x6
   12584:	add	x12,x16,x12
   12588:	and	x16,x12,x6
   1258c:	sub	x13,x13,x16
   12590:	add	x14,x13,x14
   12594:	slli	x13,x14,0x10
   12598:	or	x13,x13,x15
   1259c:	sw	x13,-4(x28)
   125a0:	srli	x12,x12,0x10
   125a4:	srai	x14,x14,0x10
   125a8:	bgeu	x19,x29,12540 <quorem+0x70>
   125ac:	lw	x15,0(x30)
   125b0:	bne	x15,x0,125e0 <quorem+0x110>
   125b4:	addi	x15,x30,-4
   125b8:	bgeu	x20,x15,125dc <quorem+0x10c>
   125bc:	lw	x14,-4(x30)
   125c0:	beq	x14,x0,125d0 <quorem+0x100>
   125c4:	jal	x0,125dc <quorem+0x10c>
   125c8:	lw	x14,0(x15)
   125cc:	bne	x14,x0,125dc <quorem+0x10c>
   125d0:	addi	x15,x15,-4
   125d4:	addi	x18,x18,-1
   125d8:	bltu	x20,x15,125c8 <quorem+0xf8>
   125dc:	sw	x18,16(x10)
   125e0:	addi	x21,x10,0
   125e4:	jal	x1,15c50 <__mcmp>
   125e8:	blt	x10,x0,12688 <quorem+0x1b8>
   125ec:	lui	x11,0x10
   125f0:	addi	x9,x9,1
   125f4:	addi	x12,x20,0
   125f8:	addi	x15,x0,0
   125fc:	addi	x11,x11,-1 # ffff <_ftext-0x1>
   12600:	addi	x8,x8,4
   12604:	lw	x13,-4(x8)
   12608:	lw	x14,0(x12)
   1260c:	addi	x12,x12,4
   12610:	and	x16,x13,x11
   12614:	sub	x15,x15,x16
   12618:	and	x16,x14,x11
   1261c:	add	x15,x15,x16
   12620:	srli	x13,x13,0x10
   12624:	srli	x14,x14,0x10
   12628:	sub	x14,x14,x13
   1262c:	srai	x13,x15,0x10
   12630:	add	x13,x14,x13
   12634:	slli	x16,x13,0x10
   12638:	and	x14,x15,x11
   1263c:	or	x14,x16,x14
   12640:	sw	x14,-4(x12)
   12644:	srai	x15,x13,0x10
   12648:	bgeu	x19,x8,12600 <quorem+0x130>
   1264c:	slli	x14,x18,0x2
   12650:	add	x14,x20,x14
   12654:	lw	x15,0(x14)
   12658:	bne	x15,x0,12688 <quorem+0x1b8>
   1265c:	addi	x15,x14,-4
   12660:	bgeu	x20,x15,12684 <quorem+0x1b4>
   12664:	lw	x14,-4(x14)
   12668:	beq	x14,x0,12678 <quorem+0x1a8>
   1266c:	jal	x0,12684 <quorem+0x1b4>
   12670:	lw	x14,0(x15)
   12674:	bne	x14,x0,12684 <quorem+0x1b4>
   12678:	addi	x15,x15,-4
   1267c:	addi	x18,x18,-1
   12680:	bltu	x20,x15,12670 <quorem+0x1a0>
   12684:	sw	x18,16(x21)
   12688:	addi	x10,x9,0
   1268c:	lw	x1,28(x2)
   12690:	lw	x8,24(x2)
   12694:	lw	x9,20(x2)
   12698:	lw	x18,16(x2)
   1269c:	lw	x19,12(x2)
   126a0:	lw	x20,8(x2)
   126a4:	lw	x21,4(x2)
   126a8:	addi	x2,x2,32
   126ac:	jalr	x0,x1,0
   126b0:	addi	x10,x0,0
   126b4:	jal	x0,1268c <quorem+0x1bc>

000126b8 <_dtoa_r>:
   126b8:	lw	x6,64(x10)
   126bc:	addi	x2,x2,-160
   126c0:	sw	x8,152(x2)
   126c4:	sw	x18,144(x2)
   126c8:	sw	x20,136(x2)
   126cc:	sw	x25,116(x2)
   126d0:	sw	x1,156(x2)
   126d4:	sw	x9,148(x2)
   126d8:	sw	x19,140(x2)
   126dc:	sw	x21,132(x2)
   126e0:	sw	x22,128(x2)
   126e4:	sw	x23,124(x2)
   126e8:	sw	x24,120(x2)
   126ec:	sw	x26,112(x2)
   126f0:	sw	x27,108(x2)
   126f4:	sw	x16,12(x2)
   126f8:	sw	x12,0(x2)
   126fc:	sw	x13,4(x2)
   12700:	addi	x8,x10,0
   12704:	addi	x20,x14,0
   12708:	addi	x25,x15,0
   1270c:	addi	x18,x17,0
   12710:	beq	x6,x0,12734 <_dtoa_r+0x7c>
   12714:	lw	x14,68(x10)
   12718:	addi	x15,x0,1
   1271c:	addi	x11,x6,0
   12720:	sll	x15,x15,x14
   12724:	sw	x14,4(x6)
   12728:	sw	x15,8(x6)
   1272c:	jal	x1,15440 <_Bfree>
   12730:	sw	x0,64(x8)
   12734:	lw	x9,4(x2)
   12738:	blt	x9,x0,1281c <_dtoa_r+0x164>
   1273c:	sw	x0,0(x18)
   12740:	lui	x15,0x7ff00
   12744:	and	x14,x9,x15
   12748:	beq	x14,x15,127d4 <_dtoa_r+0x11c>
   1274c:	lw	x18,0(x2)
   12750:	lw	x19,4(x2)
   12754:	addi	x12,x0,0
   12758:	addi	x13,x0,0
   1275c:	addi	x10,x18,0
   12760:	addi	x11,x19,0
   12764:	jal	x1,19c94 <__eqdf2>
   12768:	bne	x10,x0,1283c <_dtoa_r+0x184>
   1276c:	lw	x14,12(x2)
   12770:	addi	x15,x0,1
   12774:	sw	x15,0(x14)
   12778:	lw	x15,160(x2)
   1277c:	beq	x15,x0,12db8 <_dtoa_r+0x700>
   12780:	lw	x14,160(x2)
   12784:	lui	x15,0x1b
   12788:	addi	x15,x15,529 # 1b211 <__clz_tab+0x161>
   1278c:	lui	x9,0x1b
   12790:	sw	x15,0(x14)
   12794:	addi	x10,x9,528 # 1b210 <__clz_tab+0x160>
   12798:	lw	x1,156(x2)
   1279c:	lw	x8,152(x2)
   127a0:	lw	x9,148(x2)
   127a4:	lw	x18,144(x2)
   127a8:	lw	x19,140(x2)
   127ac:	lw	x20,136(x2)
   127b0:	lw	x21,132(x2)
   127b4:	lw	x22,128(x2)
   127b8:	lw	x23,124(x2)
   127bc:	lw	x24,120(x2)
   127c0:	lw	x25,116(x2)
   127c4:	lw	x26,112(x2)
   127c8:	lw	x27,108(x2)
   127cc:	addi	x2,x2,160
   127d0:	jalr	x0,x1,0
   127d4:	lw	x14,12(x2)
   127d8:	lui	x15,0x2
   127dc:	addi	x15,x15,1807 # 270f <_ftext-0xd8f1>
   127e0:	sw	x15,0(x14)
   127e4:	lw	x15,0(x2)
   127e8:	beq	x15,x0,12d7c <_dtoa_r+0x6c4>
   127ec:	lui	x10,0x1b
   127f0:	addi	x9,x10,544 # 1b220 <__clz_tab+0x170>
   127f4:	lw	x15,160(x2)
   127f8:	beq	x15,x0,135f4 <_dtoa_r+0xf3c>
   127fc:	lbu	x14,3(x9)
   12800:	addi	x15,x9,3
   12804:	beq	x14,x0,1280c <_dtoa_r+0x154>
   12808:	addi	x15,x9,8
   1280c:	lw	x14,160(x2)
   12810:	addi	x10,x9,0
   12814:	sw	x15,0(x14)
   12818:	jal	x0,12798 <_dtoa_r+0xe0>
   1281c:	lw	x15,4(x2)
   12820:	lui	x9,0x80000
   12824:	xori	x9,x9,-1
   12828:	and	x9,x9,x15
   1282c:	addi	x15,x0,1
   12830:	sw	x15,0(x18)
   12834:	sw	x9,4(x2)
   12838:	jal	x0,12740 <_dtoa_r+0x88>
   1283c:	addi	x14,x2,92
   12840:	addi	x15,x2,88
   12844:	addi	x12,x18,0
   12848:	addi	x13,x19,0
   1284c:	addi	x10,x8,0
   12850:	jal	x1,16050 <__d2b>
   12854:	sw	x10,24(x2)
   12858:	srli	x14,x9,0x14
   1285c:	bne	x14,x0,12d90 <_dtoa_r+0x6d8>
   12860:	lw	x18,88(x2)
   12864:	lw	x19,92(x2)
   12868:	addi	x15,x0,32
   1286c:	add	x19,x18,x19
   12870:	addi	x14,x19,1074
   12874:	bge	x15,x14,13188 <_dtoa_r+0xad0>
   12878:	addi	x15,x0,64
   1287c:	sub	x14,x15,x14
   12880:	lw	x15,0(x2)
   12884:	addi	x10,x19,1042
   12888:	sll	x9,x9,x14
   1288c:	srl	x10,x15,x10
   12890:	or	x10,x10,x9
   12894:	jal	x1,19dac <__floatunsidf>
   12898:	lui	x15,0xfe100
   1289c:	add	x11,x15,x11
   128a0:	addi	x15,x0,1
   128a4:	addi	x19,x19,-1
   128a8:	sw	x15,44(x2)
   128ac:	lui	x15,0x1d
   128b0:	lw	x12,-560(x15) # 1cdd0 <__wctomb+0x8>
   128b4:	lw	x13,-556(x15)
   128b8:	jal	x1,19638 <__subdf3>
   128bc:	lui	x15,0x1d
   128c0:	lw	x12,-552(x15) # 1cdd8 <__wctomb+0x10>
   128c4:	lw	x13,-548(x15)
   128c8:	jal	x1,19694 <__muldf3>
   128cc:	lui	x15,0x1d
   128d0:	lw	x12,-544(x15) # 1cde0 <__wctomb+0x18>
   128d4:	lw	x13,-540(x15)
   128d8:	jal	x1,195e8 <__adddf3>
   128dc:	addi	x22,x10,0
   128e0:	addi	x10,x19,0
   128e4:	addi	x23,x11,0
   128e8:	jal	x1,19ce8 <__floatsidf>
   128ec:	lui	x15,0x1d
   128f0:	lw	x12,-536(x15) # 1cde8 <__wctomb+0x20>
   128f4:	lw	x13,-532(x15)
   128f8:	jal	x1,19694 <__muldf3>
   128fc:	addi	x12,x10,0
   12900:	addi	x13,x11,0
   12904:	addi	x10,x22,0
   12908:	addi	x11,x23,0
   1290c:	jal	x1,195e8 <__adddf3>
   12910:	addi	x26,x10,0
   12914:	addi	x27,x11,0
   12918:	jal	x1,19e34 <__fixdfsi>
   1291c:	addi	x23,x10,0
   12920:	addi	x12,x0,0
   12924:	addi	x13,x0,0
   12928:	addi	x10,x26,0
   1292c:	addi	x11,x27,0
   12930:	jal	x1,19c8c <__ltdf2>
   12934:	blt	x10,x0,13060 <_dtoa_r+0x9a8>
   12938:	addi	x15,x0,1
   1293c:	sw	x15,32(x2)
   12940:	addi	x15,x0,22
   12944:	bltu	x15,x23,12978 <_dtoa_r+0x2c0>
   12948:	lui	x14,0x1b
   1294c:	slli	x15,x23,0x3
   12950:	addi	x14,x14,-536 # 1ade8 <__mprec_tens>
   12954:	add	x15,x15,x14
   12958:	lw	x10,0(x15)
   1295c:	lw	x11,4(x15)
   12960:	lw	x12,0(x2)
   12964:	lw	x13,4(x2)
   12968:	jal	x1,19c2c <__gtdf2>
   1296c:	bge	x0,x10,13180 <_dtoa_r+0xac8>
   12970:	addi	x23,x23,-1
   12974:	sw	x0,32(x2)
   12978:	sub	x19,x18,x19
   1297c:	addi	x19,x19,-1
   12980:	addi	x26,x0,0
   12984:	blt	x19,x0,12dc4 <_dtoa_r+0x70c>
   12988:	blt	x23,x0,13050 <_dtoa_r+0x998>
   1298c:	add	x19,x19,x23
   12990:	sw	x23,36(x2)
   12994:	addi	x24,x0,0
   12998:	addi	x15,x0,9
   1299c:	bltu	x15,x20,12dd0 <_dtoa_r+0x718>
   129a0:	addi	x15,x0,5
   129a4:	addi	x16,x0,1
   129a8:	bge	x15,x20,129b4 <_dtoa_r+0x2fc>
   129ac:	addi	x20,x20,-4
   129b0:	addi	x16,x0,0
   129b4:	addi	x15,x0,3
   129b8:	beq	x20,x15,136b0 <_dtoa_r+0xff8>
   129bc:	bge	x15,x20,13618 <_dtoa_r+0xf60>
   129c0:	addi	x15,x0,4
   129c4:	beq	x20,x15,134cc <_dtoa_r+0xe14>
   129c8:	addi	x15,x0,1
   129cc:	sw	x15,28(x2)
   129d0:	addi	x15,x0,5
   129d4:	bne	x20,x15,13624 <_dtoa_r+0xf6c>
   129d8:	add	x15,x23,x25
   129dc:	addi	x22,x15,1
   129e0:	sw	x15,40(x2)
   129e4:	addi	x12,x22,0
   129e8:	addi	x18,x22,0
   129ec:	bge	x0,x22,1360c <_dtoa_r+0xf54>
   129f0:	sw	x0,68(x8)
   129f4:	addi	x15,x0,23
   129f8:	addi	x11,x0,0
   129fc:	bgeu	x15,x12,12a20 <_dtoa_r+0x368>
   12a00:	addi	x14,x0,1
   12a04:	addi	x15,x0,4
   12a08:	slli	x15,x15,0x1
   12a0c:	addi	x13,x15,20
   12a10:	addi	x11,x14,0
   12a14:	addi	x14,x14,1
   12a18:	bgeu	x12,x13,12a08 <_dtoa_r+0x350>
   12a1c:	sw	x11,68(x8)
   12a20:	addi	x10,x8,0
   12a24:	sw	x16,16(x2)
   12a28:	jal	x1,1539c <_Balloc>
   12a2c:	sw	x10,64(x8)
   12a30:	addi	x15,x0,14
   12a34:	addi	x9,x10,0
   12a38:	bltu	x15,x18,12e00 <_dtoa_r+0x748>
   12a3c:	lw	x16,16(x2)
   12a40:	beq	x16,x0,12e00 <_dtoa_r+0x748>
   12a44:	lw	x10,0(x2)
   12a48:	lw	x11,4(x2)
   12a4c:	sw	x10,64(x2)
   12a50:	sw	x11,68(x2)
   12a54:	bge	x0,x23,137ac <_dtoa_r+0x10f4>
   12a58:	andi	x14,x23,15
   12a5c:	slli	x13,x14,0x3
   12a60:	lui	x14,0x1b
   12a64:	srai	x21,x23,0x4
   12a68:	addi	x14,x14,-536 # 1ade8 <__mprec_tens>
   12a6c:	add	x14,x13,x14
   12a70:	andi	x13,x21,16
   12a74:	lw	x16,0(x14)
   12a78:	lw	x17,4(x14)
   12a7c:	addi	x18,x0,2
   12a80:	beq	x13,x0,12ab4 <_dtoa_r+0x3fc>
   12a84:	lui	x14,0x1b
   12a88:	lw	x12,-264(x14) # 1aef8 <__mprec_bigtens+0x20>
   12a8c:	lw	x13,-260(x14)
   12a90:	sw	x16,16(x2)
   12a94:	sw	x17,20(x2)
   12a98:	jal	x1,198f8 <__divdf3>
   12a9c:	lw	x16,16(x2)
   12aa0:	lw	x17,20(x2)
   12aa4:	andi	x21,x21,15
   12aa8:	sw	x10,0(x2)
   12aac:	sw	x11,4(x2)
   12ab0:	addi	x18,x0,3
   12ab4:	beq	x21,x0,12af4 <_dtoa_r+0x43c>
   12ab8:	lui	x14,0x1b
   12abc:	addi	x27,x14,-296 # 1aed8 <__mprec_bigtens>
   12ac0:	andi	x13,x21,1
   12ac4:	addi	x10,x16,0
   12ac8:	srai	x21,x21,0x1
   12acc:	addi	x11,x17,0
   12ad0:	beq	x13,x0,12aec <_dtoa_r+0x434>
   12ad4:	lw	x12,0(x27)
   12ad8:	lw	x13,4(x27)
   12adc:	addi	x18,x18,1
   12ae0:	jal	x1,19694 <__muldf3>
   12ae4:	addi	x16,x10,0
   12ae8:	addi	x17,x11,0
   12aec:	addi	x27,x27,8
   12af0:	bne	x21,x0,12ac0 <_dtoa_r+0x408>
   12af4:	lw	x10,0(x2)
   12af8:	lw	x11,4(x2)
   12afc:	addi	x12,x16,0
   12b00:	addi	x13,x17,0
   12b04:	jal	x1,198f8 <__divdf3>
   12b08:	sw	x10,16(x2)
   12b0c:	sw	x11,20(x2)
   12b10:	lw	x15,32(x2)
   12b14:	beq	x15,x0,12b38 <_dtoa_r+0x480>
   12b18:	lui	x15,0x1d
   12b1c:	lw	x12,-528(x15) # 1cdf0 <__wctomb+0x28>
   12b20:	lw	x13,-524(x15)
   12b24:	lw	x10,16(x2)
   12b28:	lw	x11,20(x2)
   12b2c:	jal	x1,19c8c <__ltdf2>
   12b30:	bge	x10,x0,12b38 <_dtoa_r+0x480>
   12b34:	jal	x0,13a48 <_dtoa_r+0x1390>
   12b38:	addi	x10,x18,0
   12b3c:	jal	x1,19ce8 <__floatsidf>
   12b40:	lw	x12,16(x2)
   12b44:	lw	x13,20(x2)
   12b48:	jal	x1,19694 <__muldf3>
   12b4c:	lui	x15,0x1d
   12b50:	lw	x12,-512(x15) # 1ce00 <__wctomb+0x38>
   12b54:	lw	x13,-508(x15)
   12b58:	jal	x1,195e8 <__adddf3>
   12b5c:	lui	x15,0xfcc00
   12b60:	addi	x16,x10,0
   12b64:	add	x17,x15,x11
   12b68:	beq	x22,x0,136e8 <_dtoa_r+0x1030>
   12b6c:	sw	x23,72(x2)
   12b70:	addi	x6,x22,0
   12b74:	lw	x15,28(x2)
   12b78:	beq	x15,x0,1389c <_dtoa_r+0x11e4>
   12b7c:	addi	x15,x6,-1
   12b80:	lui	x14,0x1b
   12b84:	addi	x14,x14,-536 # 1ade8 <__mprec_tens>
   12b88:	slli	x15,x15,0x3
   12b8c:	add	x15,x15,x14
   12b90:	lw	x12,0(x15) # fcc00000 <_gp+0xfcbe2a50>
   12b94:	lw	x13,4(x15)
   12b98:	lui	x15,0x1d
   12b9c:	lw	x10,-496(x15) # 1ce10 <__wctomb+0x48>
   12ba0:	lw	x11,-492(x15)
   12ba4:	sw	x6,48(x2)
   12ba8:	sw	x16,0(x2)
   12bac:	sw	x17,4(x2)
   12bb0:	jal	x1,198f8 <__divdf3>
   12bb4:	lw	x16,0(x2)
   12bb8:	lw	x17,4(x2)
   12bbc:	addi	x27,x9,1 # 80000001 <_gp+0x7ffe2a51>
   12bc0:	addi	x12,x16,0
   12bc4:	addi	x13,x17,0
   12bc8:	jal	x1,19638 <__subdf3>
   12bcc:	sw	x10,0(x2)
   12bd0:	sw	x11,4(x2)
   12bd4:	lw	x10,16(x2)
   12bd8:	lw	x11,20(x2)
   12bdc:	jal	x1,19e34 <__fixdfsi>
   12be0:	addi	x18,x10,0
   12be4:	jal	x1,19ce8 <__floatsidf>
   12be8:	addi	x12,x10,0
   12bec:	addi	x13,x11,0
   12bf0:	lw	x10,16(x2)
   12bf4:	lw	x11,20(x2)
   12bf8:	jal	x1,19638 <__subdf3>
   12bfc:	addi	x12,x10,0
   12c00:	addi	x13,x11,0
   12c04:	addi	x14,x18,48
   12c08:	sw	x10,16(x2)
   12c0c:	sw	x11,20(x2)
   12c10:	lw	x10,0(x2)
   12c14:	lw	x11,4(x2)
   12c18:	andi	x18,x14,255
   12c1c:	sb	x18,0(x9)
   12c20:	jal	x1,19c2c <__gtdf2>
   12c24:	blt	x0,x10,12d48 <_dtoa_r+0x690>
   12c28:	lui	x21,0x1d
   12c2c:	lw	x12,16(x2)
   12c30:	lw	x13,20(x2)
   12c34:	lw	x10,-528(x21) # 1cdf0 <__wctomb+0x28>
   12c38:	lw	x11,-524(x21)
   12c3c:	jal	x1,19638 <__subdf3>
   12c40:	addi	x12,x10,0
   12c44:	addi	x13,x11,0
   12c48:	lw	x10,0(x2)
   12c4c:	lw	x11,4(x2)
   12c50:	jal	x1,19c2c <__gtdf2>
   12c54:	bge	x0,x10,12c5c <_dtoa_r+0x5a4>
   12c58:	jal	x0,13b10 <_dtoa_r+0x1458>
   12c5c:	lw	x6,48(x2)
   12c60:	addi	x14,x0,1
   12c64:	bge	x14,x6,13798 <_dtoa_r+0x10e0>
   12c68:	lui	x14,0x1d
   12c6c:	lw	x15,-516(x14) # 1cdfc <__wctomb+0x34>
   12c70:	lw	x14,-520(x14)
   12c74:	sw	x15,52(x2)
   12c78:	sw	x14,48(x2)
   12c7c:	lw	x15,-524(x21)
   12c80:	lw	x14,-528(x21)
   12c84:	add	x21,x9,x6
   12c88:	sw	x15,60(x2)
   12c8c:	sw	x14,56(x2)
   12c90:	jal	x0,12cb4 <_dtoa_r+0x5fc>
   12c94:	lw	x10,56(x2)
   12c98:	lw	x11,60(x2)
   12c9c:	jal	x1,19638 <__subdf3>
   12ca0:	lw	x12,0(x2)
   12ca4:	lw	x13,4(x2)
   12ca8:	jal	x1,19c8c <__ltdf2>
   12cac:	blt	x10,x0,13b10 <_dtoa_r+0x1458>
   12cb0:	beq	x27,x21,13798 <_dtoa_r+0x10e0>
   12cb4:	lw	x12,48(x2)
   12cb8:	lw	x13,52(x2)
   12cbc:	lw	x10,0(x2)
   12cc0:	lw	x11,4(x2)
   12cc4:	addi	x27,x27,1
   12cc8:	jal	x1,19694 <__muldf3>
   12ccc:	lui	x15,0x1d
   12cd0:	lw	x12,-520(x15) # 1cdf8 <__wctomb+0x30>
   12cd4:	lw	x13,-516(x15)
   12cd8:	sw	x10,0(x2)
   12cdc:	sw	x11,4(x2)
   12ce0:	lw	x10,16(x2)
   12ce4:	lw	x11,20(x2)
   12ce8:	jal	x1,19694 <__muldf3>
   12cec:	sw	x11,20(x2)
   12cf0:	sw	x10,16(x2)
   12cf4:	jal	x1,19e34 <__fixdfsi>
   12cf8:	addi	x18,x10,0
   12cfc:	jal	x1,19ce8 <__floatsidf>
   12d00:	lw	x16,16(x2)
   12d04:	lw	x17,20(x2)
   12d08:	addi	x12,x10,0
   12d0c:	addi	x13,x11,0
   12d10:	addi	x10,x16,0
   12d14:	addi	x11,x17,0
   12d18:	jal	x1,19638 <__subdf3>
   12d1c:	addi	x14,x18,48
   12d20:	lw	x12,0(x2)
   12d24:	lw	x13,4(x2)
   12d28:	andi	x18,x14,255
   12d2c:	sb	x18,-1(x27)
   12d30:	sw	x10,16(x2)
   12d34:	sw	x11,20(x2)
   12d38:	jal	x1,19c8c <__ltdf2>
   12d3c:	lw	x12,16(x2)
   12d40:	lw	x13,20(x2)
   12d44:	bge	x10,x0,12c94 <_dtoa_r+0x5dc>
   12d48:	lw	x23,72(x2)
   12d4c:	lw	x11,24(x2)
   12d50:	addi	x10,x8,0
   12d54:	addi	x23,x23,1
   12d58:	jal	x1,15440 <_Bfree>
   12d5c:	lw	x15,12(x2)
   12d60:	sb	x0,0(x27)
   12d64:	sw	x23,0(x15)
   12d68:	lw	x15,160(x2)
   12d6c:	beq	x15,x0,135f4 <_dtoa_r+0xf3c>
   12d70:	sw	x27,0(x15)
   12d74:	addi	x10,x9,0
   12d78:	jal	x0,12798 <_dtoa_r+0xe0>
   12d7c:	slli	x15,x9,0xc
   12d80:	bne	x15,x0,127ec <_dtoa_r+0x134>
   12d84:	lui	x10,0x1b
   12d88:	addi	x9,x10,532 # 1b214 <__clz_tab+0x164>
   12d8c:	jal	x0,127f4 <_dtoa_r+0x13c>
   12d90:	lui	x15,0x100
   12d94:	addi	x15,x15,-1 # fffff <_gp+0xe2a4f>
   12d98:	and	x15,x19,x15
   12d9c:	lui	x13,0x3ff00
   12da0:	addi	x10,x18,0
   12da4:	or	x11,x15,x13
   12da8:	addi	x19,x14,-1023
   12dac:	lw	x18,88(x2)
   12db0:	sw	x0,44(x2)
   12db4:	jal	x0,128ac <_dtoa_r+0x1f4>
   12db8:	lui	x9,0x1b
   12dbc:	addi	x10,x9,528 # 1b210 <__clz_tab+0x160>
   12dc0:	jal	x0,12798 <_dtoa_r+0xe0>
   12dc4:	sub	x26,x0,x19
   12dc8:	addi	x19,x0,0
   12dcc:	jal	x0,12988 <_dtoa_r+0x2d0>
   12dd0:	sw	x0,68(x8)
   12dd4:	addi	x11,x0,0
   12dd8:	addi	x10,x8,0
   12ddc:	jal	x1,1539c <_Balloc>
   12de0:	addi	x22,x0,-1
   12de4:	addi	x15,x0,1
   12de8:	addi	x9,x10,0
   12dec:	sw	x10,64(x8)
   12df0:	sw	x22,40(x2)
   12df4:	addi	x25,x0,0
   12df8:	addi	x20,x0,0
   12dfc:	sw	x15,28(x2)
   12e00:	lw	x15,92(x2)
   12e04:	blt	x15,x0,12ff4 <_dtoa_r+0x93c>
   12e08:	addi	x14,x0,14
   12e0c:	blt	x14,x23,12ff4 <_dtoa_r+0x93c>
   12e10:	lui	x14,0x1b
   12e14:	addi	x14,x14,-536 # 1ade8 <__mprec_tens>
   12e18:	slli	x15,x23,0x3
   12e1c:	add	x15,x15,x14
   12e20:	lw	x14,0(x15)
   12e24:	lw	x15,4(x15)
   12e28:	sw	x14,16(x2)
   12e2c:	sw	x15,20(x2)
   12e30:	blt	x25,x0,134ec <_dtoa_r+0xe34>
   12e34:	lw	x18,0(x2)
   12e38:	lw	x19,4(x2)
   12e3c:	lw	x20,16(x2)
   12e40:	lw	x21,20(x2)
   12e44:	addi	x10,x18,0
   12e48:	addi	x12,x20,0
   12e4c:	addi	x13,x21,0
   12e50:	addi	x11,x19,0
   12e54:	jal	x1,198f8 <__divdf3>
   12e58:	jal	x1,19e34 <__fixdfsi>
   12e5c:	addi	x24,x10,0
   12e60:	jal	x1,19ce8 <__floatsidf>
   12e64:	addi	x12,x20,0
   12e68:	addi	x13,x21,0
   12e6c:	jal	x1,19694 <__muldf3>
   12e70:	addi	x12,x10,0
   12e74:	addi	x13,x11,0
   12e78:	addi	x10,x18,0
   12e7c:	addi	x11,x19,0
   12e80:	jal	x1,19638 <__subdf3>
   12e84:	addi	x15,x24,48
   12e88:	sb	x15,0(x9)
   12e8c:	addi	x14,x0,1
   12e90:	addi	x16,x10,0
   12e94:	addi	x17,x11,0
   12e98:	addi	x27,x9,1
   12e9c:	beq	x22,x14,12f74 <_dtoa_r+0x8bc>
   12ea0:	lui	x14,0x1d
   12ea4:	lw	x12,-520(x14) # 1cdf8 <__wctomb+0x30>
   12ea8:	lw	x13,-516(x14)
   12eac:	sw	x14,0(x2)
   12eb0:	jal	x1,19694 <__muldf3>
   12eb4:	addi	x12,x0,0
   12eb8:	addi	x13,x0,0
   12ebc:	addi	x20,x10,0
   12ec0:	addi	x21,x11,0
   12ec4:	jal	x1,19c94 <__eqdf2>
   12ec8:	lw	x14,0(x2)
   12ecc:	beq	x10,x0,12d4c <_dtoa_r+0x694>
   12ed0:	lw	x15,-516(x14)
   12ed4:	lw	x14,-520(x14)
   12ed8:	addi	x18,x9,2
   12edc:	sw	x15,4(x2)
   12ee0:	sw	x14,0(x2)
   12ee4:	add	x22,x9,x22
   12ee8:	jal	x0,12f0c <_dtoa_r+0x854>
   12eec:	jal	x1,19694 <__muldf3>
   12ef0:	addi	x12,x0,0
   12ef4:	addi	x13,x0,0
   12ef8:	addi	x20,x10,0
   12efc:	addi	x21,x11,0
   12f00:	addi	x18,x18,1
   12f04:	jal	x1,19c94 <__eqdf2>
   12f08:	beq	x10,x0,12d4c <_dtoa_r+0x694>
   12f0c:	lw	x27,20(x2)
   12f10:	lw	x26,16(x2)
   12f14:	addi	x10,x20,0
   12f18:	addi	x13,x27,0
   12f1c:	addi	x12,x26,0
   12f20:	addi	x11,x21,0
   12f24:	jal	x1,198f8 <__divdf3>
   12f28:	jal	x1,19e34 <__fixdfsi>
   12f2c:	addi	x24,x10,0
   12f30:	jal	x1,19ce8 <__floatsidf>
   12f34:	addi	x13,x27,0
   12f38:	addi	x12,x26,0
   12f3c:	jal	x1,19694 <__muldf3>
   12f40:	addi	x12,x10,0
   12f44:	addi	x13,x11,0
   12f48:	addi	x10,x20,0
   12f4c:	addi	x11,x21,0
   12f50:	jal	x1,19638 <__subdf3>
   12f54:	addi	x15,x24,48
   12f58:	sb	x15,-1(x18)
   12f5c:	addi	x16,x10,0
   12f60:	addi	x17,x11,0
   12f64:	lw	x12,0(x2)
   12f68:	lw	x13,4(x2)
   12f6c:	addi	x27,x18,0
   12f70:	bne	x22,x18,12eec <_dtoa_r+0x834>
   12f74:	addi	x12,x16,0
   12f78:	addi	x13,x17,0
   12f7c:	addi	x10,x16,0
   12f80:	addi	x11,x17,0
   12f84:	jal	x1,195e8 <__adddf3>
   12f88:	addi	x18,x10,0
   12f8c:	addi	x19,x11,0
   12f90:	addi	x12,x10,0
   12f94:	addi	x13,x11,0
   12f98:	lw	x10,16(x2)
   12f9c:	lw	x11,20(x2)
   12fa0:	jal	x1,19c8c <__ltdf2>
   12fa4:	blt	x10,x0,12fc8 <_dtoa_r+0x910>
   12fa8:	lw	x10,16(x2)
   12fac:	lw	x11,20(x2)
   12fb0:	addi	x12,x18,0
   12fb4:	addi	x13,x19,0
   12fb8:	jal	x1,19c94 <__eqdf2>
   12fbc:	bne	x10,x0,12d4c <_dtoa_r+0x694>
   12fc0:	andi	x24,x24,1
   12fc4:	beq	x24,x0,12d4c <_dtoa_r+0x694>
   12fc8:	lbu	x18,-1(x27)
   12fcc:	addi	x12,x0,57
   12fd0:	jal	x0,12fe0 <_dtoa_r+0x928>
   12fd4:	beq	x13,x9,13848 <_dtoa_r+0x1190>
   12fd8:	lbu	x18,-1(x13) # 3fefffff <_gp+0x3fee2a4f>
   12fdc:	addi	x27,x13,0
   12fe0:	addi	x13,x27,-1
   12fe4:	beq	x18,x12,12fd4 <_dtoa_r+0x91c>
   12fe8:	addi	x14,x18,1
   12fec:	sb	x14,0(x13)
   12ff0:	jal	x0,12d4c <_dtoa_r+0x694>
   12ff4:	lw	x14,28(x2)
   12ff8:	beq	x14,x0,13088 <_dtoa_r+0x9d0>
   12ffc:	addi	x14,x0,1
   13000:	bge	x14,x20,13540 <_dtoa_r+0xe88>
   13004:	addi	x14,x22,-1
   13008:	sub	x27,x24,x14
   1300c:	bge	x24,x14,13028 <_dtoa_r+0x970>
   13010:	lw	x15,36(x2)
   13014:	sub	x24,x14,x24
   13018:	addi	x27,x0,0
   1301c:	add	x15,x15,x24
   13020:	sw	x15,36(x2)
   13024:	addi	x24,x14,0
   13028:	sw	x26,16(x2)
   1302c:	addi	x15,x22,0
   13030:	blt	x22,x0,13a18 <_dtoa_r+0x1360>
   13034:	addi	x11,x0,1
   13038:	addi	x10,x8,0
   1303c:	add	x26,x26,x15
   13040:	add	x19,x19,x15
   13044:	jal	x1,157a4 <__i2b>
   13048:	addi	x21,x10,0
   1304c:	jal	x0,13094 <_dtoa_r+0x9dc>
   13050:	sub	x26,x26,x23
   13054:	sub	x24,x0,x23
   13058:	sw	x0,36(x2)
   1305c:	jal	x0,12998 <_dtoa_r+0x2e0>
   13060:	addi	x10,x23,0
   13064:	jal	x1,19ce8 <__floatsidf>
   13068:	addi	x12,x10,0
   1306c:	addi	x13,x11,0
   13070:	addi	x10,x26,0
   13074:	addi	x11,x27,0
   13078:	jal	x1,19c90 <__nedf2>
   1307c:	sltu	x10,x0,x10
   13080:	sub	x23,x23,x10
   13084:	jal	x0,12938 <_dtoa_r+0x280>
   13088:	addi	x27,x24,0
   1308c:	sw	x26,16(x2)
   13090:	addi	x21,x0,0
   13094:	lw	x14,16(x2)
   13098:	addi	x15,x14,0
   1309c:	beq	x14,x0,130bc <_dtoa_r+0xa04>
   130a0:	bge	x0,x19,130bc <_dtoa_r+0xa04>
   130a4:	blt	x19,x14,13480 <_dtoa_r+0xdc8>
   130a8:	lw	x14,16(x2)
   130ac:	sub	x26,x26,x15
   130b0:	sub	x19,x19,x15
   130b4:	sub	x14,x14,x15
   130b8:	sw	x14,16(x2)
   130bc:	lw	x18,24(x2)
   130c0:	bge	x0,x24,13124 <_dtoa_r+0xa6c>
   130c4:	lw	x15,28(x2)
   130c8:	beq	x15,x0,13758 <_dtoa_r+0x10a0>
   130cc:	beq	x27,x0,13110 <_dtoa_r+0xa58>
   130d0:	addi	x11,x21,0
   130d4:	addi	x12,x27,0
   130d8:	addi	x10,x8,0
   130dc:	jal	x1,159c8 <__pow5mult>
   130e0:	lw	x12,24(x2)
   130e4:	addi	x11,x10,0
   130e8:	addi	x21,x10,0
   130ec:	addi	x10,x8,0
   130f0:	jal	x1,157d8 <__multiply>
   130f4:	lw	x11,24(x2)
   130f8:	addi	x18,x10,0
   130fc:	sub	x24,x24,x27
   13100:	addi	x10,x8,0
   13104:	jal	x1,15440 <_Bfree>
   13108:	beq	x24,x0,13124 <_dtoa_r+0xa6c>
   1310c:	sw	x18,24(x2)
   13110:	lw	x11,24(x2)
   13114:	addi	x12,x24,0
   13118:	addi	x10,x8,0
   1311c:	jal	x1,159c8 <__pow5mult>
   13120:	addi	x18,x10,0
   13124:	addi	x11,x0,1
   13128:	addi	x10,x8,0
   1312c:	jal	x1,157a4 <__i2b>
   13130:	lw	x15,36(x2)
   13134:	addi	x24,x10,0
   13138:	beq	x15,x0,13198 <_dtoa_r+0xae0>
   1313c:	addi	x12,x15,0
   13140:	addi	x11,x10,0
   13144:	addi	x10,x8,0
   13148:	jal	x1,159c8 <__pow5mult>
   1314c:	addi	x15,x0,1
   13150:	addi	x24,x10,0
   13154:	bge	x15,x20,13488 <_dtoa_r+0xdd0>
   13158:	addi	x27,x0,0
   1315c:	lw	x15,16(x24)
   13160:	addi	x15,x15,3
   13164:	slli	x15,x15,0x2
   13168:	add	x15,x24,x15
   1316c:	lw	x10,4(x15)
   13170:	jal	x1,15678 <__hi0bits>
   13174:	addi	x15,x0,32
   13178:	sub	x10,x15,x10
   1317c:	jal	x0,131a8 <_dtoa_r+0xaf0>
   13180:	sw	x0,32(x2)
   13184:	jal	x0,12978 <_dtoa_r+0x2c0>
   13188:	sub	x9,x15,x14
   1318c:	lw	x15,0(x2)
   13190:	sll	x10,x15,x9
   13194:	jal	x0,12894 <_dtoa_r+0x1dc>
   13198:	addi	x15,x0,1
   1319c:	bge	x15,x20,135d4 <_dtoa_r+0xf1c>
   131a0:	addi	x27,x0,0
   131a4:	addi	x10,x15,0
   131a8:	add	x15,x10,x19
   131ac:	andi	x15,x15,31
   131b0:	beq	x15,x0,13364 <_dtoa_r+0xcac>
   131b4:	addi	x14,x0,32
   131b8:	sub	x14,x14,x15
   131bc:	addi	x13,x0,4
   131c0:	bge	x13,x14,13b5c <_dtoa_r+0x14a4>
   131c4:	addi	x14,x0,28
   131c8:	sub	x15,x14,x15
   131cc:	lw	x14,16(x2)
   131d0:	add	x26,x26,x15
   131d4:	add	x19,x19,x15
   131d8:	add	x14,x14,x15
   131dc:	sw	x14,16(x2)
   131e0:	bge	x0,x26,131f8 <_dtoa_r+0xb40>
   131e4:	addi	x11,x18,0
   131e8:	addi	x12,x26,0
   131ec:	addi	x10,x8,0
   131f0:	jal	x1,15b00 <__lshift>
   131f4:	addi	x18,x10,0
   131f8:	bge	x0,x19,13210 <_dtoa_r+0xb58>
   131fc:	addi	x11,x24,0
   13200:	addi	x12,x19,0
   13204:	addi	x10,x8,0
   13208:	jal	x1,15b00 <__lshift>
   1320c:	addi	x24,x10,0
   13210:	lw	x15,32(x2)
   13214:	bne	x15,x0,1336c <_dtoa_r+0xcb4>
   13218:	bge	x0,x22,13654 <_dtoa_r+0xf9c>
   1321c:	lw	x15,28(x2)
   13220:	beq	x15,x0,133b8 <_dtoa_r+0xd00>
   13224:	lw	x15,16(x2)
   13228:	bge	x0,x15,13240 <_dtoa_r+0xb88>
   1322c:	addi	x11,x21,0
   13230:	addi	x12,x15,0
   13234:	addi	x10,x8,0
   13238:	jal	x1,15b00 <__lshift>
   1323c:	addi	x21,x10,0
   13240:	addi	x26,x21,0
   13244:	bne	x27,x0,1385c <_dtoa_r+0x11a4>
   13248:	add	x15,x9,x22
   1324c:	sw	x15,28(x2)
   13250:	lw	x15,0(x2)
   13254:	addi	x19,x9,1
   13258:	andi	x15,x15,1
   1325c:	sw	x15,16(x2)
   13260:	addi	x11,x24,0
   13264:	addi	x10,x18,0
   13268:	jal	x1,124d0 <quorem>
   1326c:	addi	x27,x10,0
   13270:	addi	x11,x21,0
   13274:	addi	x10,x18,0
   13278:	jal	x1,15c50 <__mcmp>
   1327c:	addi	x22,x10,0
   13280:	addi	x12,x26,0
   13284:	addi	x11,x24,0
   13288:	addi	x10,x8,0
   1328c:	jal	x1,15cb0 <__mdiff>
   13290:	lw	x13,12(x10)
   13294:	addi	x14,x19,-1
   13298:	sw	x14,24(x2)
   1329c:	addi	x15,x10,0
   132a0:	addi	x25,x27,48
   132a4:	addi	x14,x0,1
   132a8:	bne	x13,x0,132c4 <_dtoa_r+0xc0c>
   132ac:	addi	x11,x10,0
   132b0:	sw	x10,0(x2)
   132b4:	addi	x10,x18,0
   132b8:	jal	x1,15c50 <__mcmp>
   132bc:	lw	x15,0(x2)
   132c0:	addi	x14,x10,0
   132c4:	addi	x11,x15,0
   132c8:	addi	x10,x8,0
   132cc:	sw	x14,0(x2)
   132d0:	jal	x1,15440 <_Bfree>
   132d4:	lw	x14,0(x2)
   132d8:	or	x15,x14,x20
   132dc:	bne	x15,x0,132e8 <_dtoa_r+0xc30>
   132e0:	lw	x15,16(x2)
   132e4:	beq	x15,x0,13558 <_dtoa_r+0xea0>
   132e8:	blt	x22,x0,13584 <_dtoa_r+0xecc>
   132ec:	or	x22,x22,x20
   132f0:	bne	x22,x0,132fc <_dtoa_r+0xc44>
   132f4:	lw	x15,16(x2)
   132f8:	beq	x15,x0,13584 <_dtoa_r+0xecc>
   132fc:	blt	x0,x14,139fc <_dtoa_r+0x1344>
   13300:	lw	x15,28(x2)
   13304:	sb	x25,-1(x19)
   13308:	addi	x27,x19,0
   1330c:	beq	x15,x19,13a0c <_dtoa_r+0x1354>
   13310:	addi	x11,x18,0
   13314:	addi	x13,x0,0
   13318:	addi	x12,x0,10
   1331c:	addi	x10,x8,0
   13320:	jal	x1,15464 <__multadd>
   13324:	addi	x18,x10,0
   13328:	addi	x13,x0,0
   1332c:	addi	x12,x0,10
   13330:	addi	x11,x21,0
   13334:	addi	x10,x8,0
   13338:	beq	x21,x26,135e0 <_dtoa_r+0xf28>
   1333c:	jal	x1,15464 <__multadd>
   13340:	addi	x11,x26,0
   13344:	addi	x21,x10,0
   13348:	addi	x13,x0,0
   1334c:	addi	x12,x0,10
   13350:	addi	x10,x8,0
   13354:	jal	x1,15464 <__multadd>
   13358:	addi	x26,x10,0
   1335c:	addi	x19,x19,1
   13360:	jal	x0,13260 <_dtoa_r+0xba8>
   13364:	addi	x15,x0,28
   13368:	jal	x0,131cc <_dtoa_r+0xb14>
   1336c:	addi	x11,x24,0
   13370:	addi	x10,x18,0
   13374:	jal	x1,15c50 <__mcmp>
   13378:	bge	x10,x0,13218 <_dtoa_r+0xb60>
   1337c:	addi	x11,x18,0
   13380:	addi	x13,x0,0
   13384:	addi	x12,x0,10
   13388:	addi	x10,x8,0
   1338c:	jal	x1,15464 <__multadd>
   13390:	lw	x15,28(x2)
   13394:	addi	x18,x10,0
   13398:	addi	x23,x23,-1
   1339c:	bne	x15,x0,13b28 <_dtoa_r+0x1470>
   133a0:	lw	x15,40(x2)
   133a4:	addi	x22,x15,0
   133a8:	blt	x0,x15,133b8 <_dtoa_r+0xd00>
   133ac:	addi	x15,x0,2
   133b0:	blt	x15,x20,13b6c <_dtoa_r+0x14b4>
   133b4:	lw	x22,40(x2)
   133b8:	addi	x19,x9,0
   133bc:	jal	x0,133c8 <_dtoa_r+0xd10>
   133c0:	jal	x1,15464 <__multadd>
   133c4:	addi	x18,x10,0
   133c8:	addi	x11,x24,0
   133cc:	addi	x10,x18,0
   133d0:	jal	x1,124d0 <quorem>
   133d4:	addi	x19,x19,1
   133d8:	addi	x25,x10,48
   133dc:	sb	x25,-1(x19)
   133e0:	sub	x15,x19,x9
   133e4:	addi	x13,x0,0
   133e8:	addi	x12,x0,10
   133ec:	addi	x11,x18,0
   133f0:	addi	x10,x8,0
   133f4:	blt	x15,x22,133c0 <_dtoa_r+0xd08>
   133f8:	bge	x0,x22,13a28 <_dtoa_r+0x1370>
   133fc:	add	x27,x9,x22
   13400:	addi	x19,x0,0
   13404:	addi	x11,x18,0
   13408:	addi	x12,x0,1
   1340c:	addi	x10,x8,0
   13410:	jal	x1,15b00 <__lshift>
   13414:	addi	x11,x24,0
   13418:	sw	x10,24(x2)
   1341c:	jal	x1,15c50 <__mcmp>
   13420:	bge	x0,x10,13770 <_dtoa_r+0x10b8>
   13424:	lbu	x13,-1(x27)
   13428:	addi	x12,x0,57
   1342c:	jal	x0,1343c <_dtoa_r+0xd84>
   13430:	beq	x14,x9,136a0 <_dtoa_r+0xfe8>
   13434:	lbu	x13,-1(x14)
   13438:	addi	x27,x14,0
   1343c:	addi	x14,x27,-1
   13440:	beq	x13,x12,13430 <_dtoa_r+0xd78>
   13444:	addi	x13,x13,1
   13448:	sb	x13,0(x14)
   1344c:	addi	x11,x24,0
   13450:	addi	x10,x8,0
   13454:	jal	x1,15440 <_Bfree>
   13458:	beq	x21,x0,12d4c <_dtoa_r+0x694>
   1345c:	beq	x19,x0,13470 <_dtoa_r+0xdb8>
   13460:	beq	x19,x21,13470 <_dtoa_r+0xdb8>
   13464:	addi	x11,x19,0
   13468:	addi	x10,x8,0
   1346c:	jal	x1,15440 <_Bfree>
   13470:	addi	x11,x21,0
   13474:	addi	x10,x8,0
   13478:	jal	x1,15440 <_Bfree>
   1347c:	jal	x0,12d4c <_dtoa_r+0x694>
   13480:	addi	x15,x19,0
   13484:	jal	x0,130a8 <_dtoa_r+0x9f0>
   13488:	lw	x15,0(x2)
   1348c:	bne	x15,x0,13158 <_dtoa_r+0xaa0>
   13490:	lw	x13,4(x2)
   13494:	addi	x27,x0,0
   13498:	slli	x14,x13,0xc
   1349c:	bne	x14,x0,134bc <_dtoa_r+0xe04>
   134a0:	lui	x15,0x7ff00
   134a4:	and	x15,x15,x13
   134a8:	beq	x15,x0,134bc <_dtoa_r+0xe04>
   134ac:	addi	x15,x0,1
   134b0:	addi	x26,x26,1
   134b4:	addi	x19,x19,1
   134b8:	addi	x27,x15,0 # 7ff00000 <_gp+0x7fee2a50>
   134bc:	lw	x15,36(x2)
   134c0:	addi	x10,x0,1
   134c4:	beq	x15,x0,131a8 <_dtoa_r+0xaf0>
   134c8:	jal	x0,1315c <_dtoa_r+0xaa4>
   134cc:	addi	x15,x0,1
   134d0:	sw	x15,28(x2)
   134d4:	bge	x0,x25,135fc <_dtoa_r+0xf44>
   134d8:	addi	x12,x25,0
   134dc:	addi	x18,x25,0
   134e0:	sw	x25,40(x2)
   134e4:	addi	x22,x25,0
   134e8:	jal	x0,129f0 <_dtoa_r+0x338>
   134ec:	blt	x0,x22,12e34 <_dtoa_r+0x77c>
   134f0:	bne	x22,x0,1374c <_dtoa_r+0x1094>
   134f4:	lui	x15,0x1d
   134f8:	lw	x12,-504(x15) # 1ce08 <__wctomb+0x40>
   134fc:	lw	x13,-500(x15)
   13500:	lw	x10,16(x2)
   13504:	lw	x11,20(x2)
   13508:	addi	x24,x0,0
   1350c:	addi	x21,x0,0
   13510:	jal	x1,19694 <__muldf3>
   13514:	lw	x12,0(x2)
   13518:	lw	x13,4(x2)
   1351c:	jal	x1,19bcc <__gedf2>
   13520:	blt	x10,x0,1368c <_dtoa_r+0xfd4>
   13524:	xori	x23,x25,-1
   13528:	addi	x27,x9,0
   1352c:	addi	x11,x24,0
   13530:	addi	x10,x8,0
   13534:	jal	x1,15440 <_Bfree>
   13538:	beq	x21,x0,12d4c <_dtoa_r+0x694>
   1353c:	jal	x0,13470 <_dtoa_r+0xdb8>
   13540:	lw	x14,44(x2)
   13544:	beq	x14,x0,13a30 <_dtoa_r+0x1378>
   13548:	addi	x15,x15,1075
   1354c:	addi	x27,x24,0
   13550:	sw	x26,16(x2)
   13554:	jal	x0,13034 <_dtoa_r+0x97c>
   13558:	addi	x15,x0,57
   1355c:	beq	x25,x15,135b0 <_dtoa_r+0xef8>
   13560:	bge	x0,x22,13568 <_dtoa_r+0xeb0>
   13564:	addi	x25,x27,49
   13568:	lw	x15,24(x2)
   1356c:	addi	x19,x21,0
   13570:	sw	x18,24(x2)
   13574:	addi	x27,x15,1
   13578:	sb	x25,0(x15)
   1357c:	addi	x21,x26,0
   13580:	jal	x0,1344c <_dtoa_r+0xd94>
   13584:	bge	x0,x14,13568 <_dtoa_r+0xeb0>
   13588:	addi	x11,x18,0
   1358c:	addi	x12,x0,1
   13590:	addi	x10,x8,0
   13594:	jal	x1,15b00 <__lshift>
   13598:	addi	x11,x24,0
   1359c:	addi	x18,x10,0
   135a0:	jal	x1,15c50 <__mcmp>
   135a4:	bge	x0,x10,13b18 <_dtoa_r+0x1460>
   135a8:	addi	x15,x0,57
   135ac:	bne	x25,x15,13564 <_dtoa_r+0xeac>
   135b0:	lw	x15,24(x2)
   135b4:	addi	x14,x0,57
   135b8:	addi	x19,x21,0
   135bc:	addi	x27,x15,1
   135c0:	sb	x14,0(x15)
   135c4:	addi	x21,x26,0
   135c8:	sw	x18,24(x2)
   135cc:	addi	x13,x0,57
   135d0:	jal	x0,13428 <_dtoa_r+0xd70>
   135d4:	lw	x14,0(x2)
   135d8:	bne	x14,x0,131a0 <_dtoa_r+0xae8>
   135dc:	jal	x0,13490 <_dtoa_r+0xdd8>
   135e0:	jal	x1,15464 <__multadd>
   135e4:	addi	x21,x10,0
   135e8:	addi	x26,x10,0
   135ec:	addi	x19,x19,1
   135f0:	jal	x0,13260 <_dtoa_r+0xba8>
   135f4:	addi	x10,x9,0
   135f8:	jal	x0,12798 <_dtoa_r+0xe0>
   135fc:	addi	x18,x0,1
   13600:	sw	x18,40(x2)
   13604:	addi	x22,x18,0
   13608:	addi	x25,x18,0
   1360c:	sw	x0,68(x8)
   13610:	addi	x11,x0,0
   13614:	jal	x0,12a20 <_dtoa_r+0x368>
   13618:	sw	x0,28(x2)
   1361c:	addi	x15,x0,2
   13620:	beq	x20,x15,134d4 <_dtoa_r+0xe1c>
   13624:	sw	x0,68(x8)
   13628:	addi	x11,x0,0
   1362c:	addi	x10,x8,0
   13630:	jal	x1,1539c <_Balloc>
   13634:	addi	x22,x0,-1
   13638:	addi	x15,x0,1
   1363c:	addi	x9,x10,0
   13640:	sw	x10,64(x8)
   13644:	sw	x22,40(x2)
   13648:	addi	x25,x0,0
   1364c:	sw	x15,28(x2)
   13650:	jal	x0,12e00 <_dtoa_r+0x748>
   13654:	addi	x15,x0,2
   13658:	bge	x15,x20,1321c <_dtoa_r+0xb64>
   1365c:	bne	x22,x0,13ab8 <_dtoa_r+0x1400>
   13660:	addi	x11,x24,0
   13664:	addi	x13,x0,0
   13668:	addi	x12,x0,5
   1366c:	addi	x10,x8,0
   13670:	jal	x1,15464 <__multadd>
   13674:	addi	x11,x10,0
   13678:	addi	x24,x10,0
   1367c:	addi	x10,x18,0
   13680:	jal	x1,15c50 <__mcmp>
   13684:	sw	x18,24(x2)
   13688:	bge	x0,x10,13524 <_dtoa_r+0xe6c>
   1368c:	addi	x14,x0,49
   13690:	addi	x27,x9,1
   13694:	sb	x14,0(x9)
   13698:	addi	x23,x23,1
   1369c:	jal	x0,1352c <_dtoa_r+0xe74>
   136a0:	addi	x14,x0,49
   136a4:	addi	x23,x23,1
   136a8:	sb	x14,0(x9)
   136ac:	jal	x0,1344c <_dtoa_r+0xd94>
   136b0:	sw	x0,28(x2)
   136b4:	jal	x0,129d8 <_dtoa_r+0x320>
   136b8:	addi	x10,x18,0
   136bc:	jal	x1,19ce8 <__floatsidf>
   136c0:	lw	x12,16(x2)
   136c4:	lw	x13,20(x2)
   136c8:	jal	x1,19694 <__muldf3>
   136cc:	lui	x15,0x1d
   136d0:	lw	x12,-512(x15) # 1ce00 <__wctomb+0x38>
   136d4:	lw	x13,-508(x15)
   136d8:	jal	x1,195e8 <__adddf3>
   136dc:	lui	x15,0xfcc00
   136e0:	addi	x16,x10,0
   136e4:	add	x17,x15,x11
   136e8:	lui	x15,0x1d
   136ec:	lw	x12,-504(x15) # 1ce08 <__wctomb+0x40>
   136f0:	lw	x13,-500(x15)
   136f4:	lw	x10,16(x2)
   136f8:	lw	x11,20(x2)
   136fc:	sw	x16,0(x2)
   13700:	sw	x17,4(x2)
   13704:	jal	x1,19638 <__subdf3>
   13708:	lw	x16,0(x2)
   1370c:	lw	x17,4(x2)
   13710:	sw	x10,16(x2)
   13714:	addi	x12,x16,0
   13718:	addi	x13,x17,0
   1371c:	sw	x11,20(x2)
   13720:	jal	x1,19c2c <__gtdf2>
   13724:	blt	x0,x10,139f0 <_dtoa_r+0x1338>
   13728:	lw	x16,0(x2)
   1372c:	lw	x17,4(x2)
   13730:	lw	x10,16(x2)
   13734:	lw	x11,20(x2)
   13738:	lui	x15,0x80000
   1373c:	addi	x12,x16,0
   13740:	xor	x13,x15,x17
   13744:	jal	x1,19c8c <__ltdf2>
   13748:	bge	x10,x0,13798 <_dtoa_r+0x10e0>
   1374c:	addi	x24,x0,0
   13750:	addi	x21,x0,0
   13754:	jal	x0,13524 <_dtoa_r+0xe6c>
   13758:	addi	x11,x18,0
   1375c:	addi	x12,x24,0
   13760:	addi	x10,x8,0
   13764:	jal	x1,159c8 <__pow5mult>
   13768:	addi	x18,x10,0
   1376c:	jal	x0,13124 <_dtoa_r+0xa6c>
   13770:	bne	x10,x0,1377c <_dtoa_r+0x10c4>
   13774:	andi	x25,x25,1
   13778:	bne	x25,x0,13424 <_dtoa_r+0xd6c>
   1377c:	addi	x12,x0,48
   13780:	jal	x0,13788 <_dtoa_r+0x10d0>
   13784:	addi	x27,x13,0
   13788:	lbu	x14,-1(x27)
   1378c:	addi	x13,x27,-1
   13790:	beq	x14,x12,13784 <_dtoa_r+0x10cc>
   13794:	jal	x0,1344c <_dtoa_r+0xd94>
   13798:	lw	x14,64(x2)
   1379c:	lw	x15,68(x2)
   137a0:	sw	x14,0(x2)
   137a4:	sw	x15,4(x2)
   137a8:	jal	x0,12e00 <_dtoa_r+0x748>
   137ac:	lw	x10,64(x2)
   137b0:	lw	x11,68(x2)
   137b4:	sub	x15,x0,x23
   137b8:	sw	x10,16(x2)
   137bc:	sw	x11,20(x2)
   137c0:	addi	x18,x0,2
   137c4:	beq	x15,x0,12b10 <_dtoa_r+0x458>
   137c8:	andi	x14,x15,15
   137cc:	lui	x13,0x1b
   137d0:	addi	x13,x13,-536 # 1ade8 <__mprec_tens>
   137d4:	slli	x14,x14,0x3
   137d8:	add	x14,x14,x13
   137dc:	lw	x12,0(x14)
   137e0:	lw	x13,4(x14)
   137e4:	srai	x15,x15,0x4
   137e8:	sw	x15,0(x2)
   137ec:	jal	x1,19694 <__muldf3>
   137f0:	lw	x15,0(x2)
   137f4:	sw	x10,16(x2)
   137f8:	sw	x11,20(x2)
   137fc:	beq	x15,x0,12b10 <_dtoa_r+0x458>
   13800:	lui	x14,0x1b
   13804:	addi	x27,x14,-296 # 1aed8 <__mprec_bigtens>
   13808:	andi	x13,x15,1
   1380c:	lw	x10,16(x2)
   13810:	srai	x15,x15,0x1
   13814:	lw	x11,20(x2)
   13818:	beq	x13,x0,1383c <_dtoa_r+0x1184>
   1381c:	lw	x12,0(x27)
   13820:	lw	x13,4(x27)
   13824:	sw	x15,0(x2)
   13828:	addi	x18,x18,1
   1382c:	jal	x1,19694 <__muldf3>
   13830:	lw	x15,0(x2)
   13834:	sw	x10,16(x2)
   13838:	sw	x11,20(x2)
   1383c:	addi	x27,x27,8
   13840:	bne	x15,x0,13808 <_dtoa_r+0x1150>
   13844:	jal	x0,12b10 <_dtoa_r+0x458>
   13848:	addi	x14,x0,48
   1384c:	sb	x14,0(x9)
   13850:	addi	x23,x23,1
   13854:	lbu	x18,-1(x27)
   13858:	jal	x0,12fe8 <_dtoa_r+0x930>
   1385c:	lw	x11,4(x21)
   13860:	addi	x10,x8,0
   13864:	jal	x1,1539c <_Balloc>
   13868:	lw	x12,16(x21)
   1386c:	addi	x19,x10,0
   13870:	addi	x11,x21,12
   13874:	addi	x12,x12,2
   13878:	slli	x12,x12,0x2
   1387c:	addi	x10,x10,12
   13880:	jal	x1,15198 <memcpy>
   13884:	addi	x12,x0,1
   13888:	addi	x11,x19,0
   1388c:	addi	x10,x8,0
   13890:	jal	x1,15b00 <__lshift>
   13894:	addi	x26,x10,0
   13898:	jal	x0,13248 <_dtoa_r+0xb90>
   1389c:	addi	x15,x6,-1
   138a0:	lui	x14,0x1b
   138a4:	addi	x14,x14,-536 # 1ade8 <__mprec_tens>
   138a8:	sw	x15,76(x2)
   138ac:	slli	x15,x15,0x3
   138b0:	add	x15,x15,x14
   138b4:	lw	x10,0(x15) # 80000000 <_gp+0x7ffe2a50>
   138b8:	lw	x11,4(x15)
   138bc:	addi	x12,x16,0
   138c0:	addi	x13,x17,0
   138c4:	sw	x6,0(x2)
   138c8:	jal	x1,19694 <__muldf3>
   138cc:	sw	x10,56(x2)
   138d0:	sw	x11,60(x2)
   138d4:	lw	x10,16(x2)
   138d8:	lw	x11,20(x2)
   138dc:	addi	x27,x9,1
   138e0:	jal	x1,19e34 <__fixdfsi>
   138e4:	addi	x18,x10,0
   138e8:	jal	x1,19ce8 <__floatsidf>
   138ec:	addi	x12,x10,0
   138f0:	addi	x13,x11,0
   138f4:	lw	x10,16(x2)
   138f8:	lw	x11,20(x2)
   138fc:	addi	x18,x18,48
   13900:	jal	x1,19638 <__subdf3>
   13904:	lw	x6,0(x2)
   13908:	sb	x18,0(x9)
   1390c:	addi	x14,x0,1
   13910:	addi	x28,x10,0
   13914:	addi	x29,x11,0
   13918:	beq	x6,x14,139a4 <_dtoa_r+0x12ec>
   1391c:	lui	x14,0x1d
   13920:	lw	x15,-516(x14) # 1cdfc <__wctomb+0x34>
   13924:	lw	x14,-520(x14)
   13928:	addi	x18,x27,0
   1392c:	sw	x15,52(x2)
   13930:	add	x15,x9,x6
   13934:	sw	x14,48(x2)
   13938:	sw	x15,16(x2)
   1393c:	lw	x12,48(x2)
   13940:	lw	x13,52(x2)
   13944:	addi	x10,x28,0
   13948:	addi	x11,x29,0
   1394c:	jal	x1,19694 <__muldf3>
   13950:	sw	x11,4(x2)
   13954:	sw	x10,0(x2)
   13958:	jal	x1,19e34 <__fixdfsi>
   1395c:	addi	x21,x10,0
   13960:	jal	x1,19ce8 <__floatsidf>
   13964:	lw	x28,0(x2)
   13968:	lw	x29,4(x2)
   1396c:	addi	x12,x10,0
   13970:	addi	x13,x11,0
   13974:	addi	x10,x28,0
   13978:	addi	x11,x29,0
   1397c:	jal	x1,19638 <__subdf3>
   13980:	lw	x15,16(x2)
   13984:	addi	x18,x18,1
   13988:	addi	x16,x21,48
   1398c:	sb	x16,-1(x18)
   13990:	addi	x28,x10,0
   13994:	addi	x29,x11,0
   13998:	bne	x15,x18,1393c <_dtoa_r+0x1284>
   1399c:	lw	x15,76(x2)
   139a0:	add	x27,x27,x15
   139a4:	lui	x18,0x1d
   139a8:	lw	x12,-496(x18) # 1ce10 <__wctomb+0x48>
   139ac:	lw	x13,-492(x18)
   139b0:	lw	x10,56(x2)
   139b4:	lw	x11,60(x2)
   139b8:	sw	x28,0(x2)
   139bc:	sw	x29,4(x2)
   139c0:	jal	x1,195e8 <__adddf3>
   139c4:	lw	x28,0(x2)
   139c8:	lw	x29,4(x2)
   139cc:	addi	x12,x28,0
   139d0:	addi	x13,x29,0
   139d4:	jal	x1,19c8c <__ltdf2>
   139d8:	lw	x28,0(x2)
   139dc:	lw	x29,4(x2)
   139e0:	bge	x10,x0,13ac0 <_dtoa_r+0x1408>
   139e4:	lbu	x18,-1(x27)
   139e8:	lw	x23,72(x2)
   139ec:	jal	x0,12fcc <_dtoa_r+0x914>
   139f0:	addi	x24,x0,0
   139f4:	addi	x21,x0,0
   139f8:	jal	x0,1368c <_dtoa_r+0xfd4>
   139fc:	addi	x15,x0,57
   13a00:	beq	x25,x15,135b0 <_dtoa_r+0xef8>
   13a04:	addi	x25,x25,1
   13a08:	jal	x0,13568 <_dtoa_r+0xeb0>
   13a0c:	addi	x19,x21,0
   13a10:	addi	x21,x26,0
   13a14:	jal	x0,13404 <_dtoa_r+0xd4c>
   13a18:	sub	x15,x26,x22
   13a1c:	sw	x15,16(x2)
   13a20:	addi	x15,x0,0
   13a24:	jal	x0,13034 <_dtoa_r+0x97c>
   13a28:	addi	x22,x0,1
   13a2c:	jal	x0,133fc <_dtoa_r+0xd44>
   13a30:	lw	x13,88(x2)
   13a34:	addi	x15,x0,54
   13a38:	addi	x27,x24,0
   13a3c:	sub	x15,x15,x13
   13a40:	sw	x26,16(x2)
   13a44:	jal	x0,13034 <_dtoa_r+0x97c>
   13a48:	beq	x22,x0,136b8 <_dtoa_r+0x1000>
   13a4c:	lw	x21,40(x2)
   13a50:	bge	x0,x21,13798 <_dtoa_r+0x10e0>
   13a54:	lui	x14,0x1d
   13a58:	lw	x12,-520(x14) # 1cdf8 <__wctomb+0x30>
   13a5c:	lw	x13,-516(x14)
   13a60:	lw	x10,16(x2)
   13a64:	lw	x11,20(x2)
   13a68:	addi	x15,x23,-1
   13a6c:	sw	x15,72(x2)
   13a70:	jal	x1,19694 <__muldf3>
   13a74:	sw	x10,16(x2)
   13a78:	addi	x10,x18,1
   13a7c:	sw	x11,20(x2)
   13a80:	jal	x1,19ce8 <__floatsidf>
   13a84:	lw	x12,16(x2)
   13a88:	lw	x13,20(x2)
   13a8c:	jal	x1,19694 <__muldf3>
   13a90:	lui	x15,0x1d
   13a94:	lw	x12,-512(x15) # 1ce00 <__wctomb+0x38>
   13a98:	lw	x13,-508(x15)
   13a9c:	sw	x21,0(x2)
   13aa0:	jal	x1,195e8 <__adddf3>
   13aa4:	lui	x15,0xfcc00
   13aa8:	addi	x16,x10,0
   13aac:	add	x17,x15,x11
   13ab0:	lw	x6,0(x2)
   13ab4:	jal	x0,12b74 <_dtoa_r+0x4bc>
   13ab8:	sw	x18,24(x2)
   13abc:	jal	x0,13524 <_dtoa_r+0xe6c>
   13ac0:	lw	x12,56(x2)
   13ac4:	lw	x13,60(x2)
   13ac8:	lw	x10,-496(x18)
   13acc:	lw	x11,-492(x18)
   13ad0:	sw	x28,0(x2)
   13ad4:	sw	x29,4(x2)
   13ad8:	jal	x1,19638 <__subdf3>
   13adc:	lw	x28,0(x2)
   13ae0:	lw	x29,4(x2)
   13ae4:	addi	x12,x28,0
   13ae8:	addi	x13,x29,0
   13aec:	jal	x1,19c2c <__gtdf2>
   13af0:	addi	x12,x0,48
   13af4:	blt	x0,x10,13b00 <_dtoa_r+0x1448>
   13af8:	jal	x0,13798 <_dtoa_r+0x10e0>
   13afc:	addi	x27,x13,0
   13b00:	lbu	x14,-1(x27)
   13b04:	addi	x13,x27,-1
   13b08:	beq	x14,x12,13afc <_dtoa_r+0x1444>
   13b0c:	jal	x0,12d48 <_dtoa_r+0x690>
   13b10:	lw	x23,72(x2)
   13b14:	jal	x0,12fcc <_dtoa_r+0x914>
   13b18:	bne	x10,x0,13568 <_dtoa_r+0xeb0>
   13b1c:	andi	x15,x25,1
   13b20:	beq	x15,x0,13568 <_dtoa_r+0xeb0>
   13b24:	jal	x0,135a8 <_dtoa_r+0xef0>
   13b28:	addi	x11,x21,0
   13b2c:	addi	x13,x0,0
   13b30:	addi	x12,x0,10
   13b34:	addi	x10,x8,0
   13b38:	jal	x1,15464 <__multadd>
   13b3c:	lw	x15,40(x2)
   13b40:	addi	x21,x10,0
   13b44:	addi	x22,x15,0 # fcc00000 <_gp+0xfcbe2a50>
   13b48:	blt	x0,x15,13224 <_dtoa_r+0xb6c>
   13b4c:	addi	x15,x0,2
   13b50:	blt	x15,x20,13b6c <_dtoa_r+0x14b4>
   13b54:	lw	x22,40(x2)
   13b58:	jal	x0,13224 <_dtoa_r+0xb6c>
   13b5c:	beq	x14,x13,131e0 <_dtoa_r+0xb28>
   13b60:	addi	x14,x0,60
   13b64:	sub	x15,x14,x15
   13b68:	jal	x0,131cc <_dtoa_r+0xb14>
   13b6c:	lw	x22,40(x2)
   13b70:	jal	x0,1365c <_dtoa_r+0xfa4>

00013b74 <__sflush_r>:
   13b74:	lh	x13,12(x11)
   13b78:	addi	x2,x2,-32
   13b7c:	sw	x8,24(x2)
   13b80:	slli	x14,x13,0x10
   13b84:	srli	x14,x14,0x10
   13b88:	sw	x19,12(x2)
   13b8c:	sw	x1,28(x2)
   13b90:	sw	x9,20(x2)
   13b94:	sw	x18,16(x2)
   13b98:	andi	x15,x14,8
   13b9c:	addi	x8,x11,0
   13ba0:	addi	x19,x10,0
   13ba4:	bne	x15,x0,13cb8 <__sflush_r+0x144>
   13ba8:	lui	x15,0x1
   13bac:	addi	x15,x15,-2048 # 800 <_ftext-0xf800>
   13bb0:	lw	x14,4(x11)
   13bb4:	or	x15,x13,x15
   13bb8:	sh	x15,12(x11)
   13bbc:	bge	x0,x14,13d88 <__sflush_r+0x214>
   13bc0:	lw	x16,40(x8)
   13bc4:	beq	x16,x0,13c98 <__sflush_r+0x124>
   13bc8:	slli	x15,x15,0x10
   13bcc:	srli	x15,x15,0x10
   13bd0:	lw	x9,0(x19)
   13bd4:	slli	x14,x15,0x13
   13bd8:	sw	x0,0(x19)
   13bdc:	bge	x14,x0,13d94 <__sflush_r+0x220>
   13be0:	lw	x12,80(x8)
   13be4:	lw	x13,84(x8)
   13be8:	andi	x15,x15,4
   13bec:	beq	x15,x0,13c30 <__sflush_r+0xbc>
   13bf0:	lw	x15,4(x8)
   13bf4:	lw	x11,48(x8)
   13bf8:	sub	x14,x12,x15
   13bfc:	srai	x15,x15,0x1f
   13c00:	sltu	x10,x12,x14
   13c04:	sub	x13,x13,x15
   13c08:	addi	x12,x14,0
   13c0c:	sub	x13,x13,x10
   13c10:	beq	x11,x0,13c30 <__sflush_r+0xbc>
   13c14:	lw	x15,60(x8)
   13c18:	sub	x14,x14,x15
   13c1c:	srai	x15,x15,0x1f
   13c20:	sltu	x11,x12,x14
   13c24:	sub	x13,x13,x15
   13c28:	addi	x12,x14,0
   13c2c:	sub	x13,x13,x11
   13c30:	lw	x11,28(x8)
   13c34:	addi	x14,x0,0
   13c38:	addi	x10,x19,0
   13c3c:	jalr	x1,x16,0
   13c40:	addi	x15,x0,-1
   13c44:	beq	x10,x15,13d24 <__sflush_r+0x1b0>
   13c48:	lhu	x13,12(x8)
   13c4c:	lui	x15,0xfffff
   13c50:	addi	x15,x15,2047 # fffff7ff <_gp+0xfffe224f>
   13c54:	lw	x14,16(x8)
   13c58:	and	x15,x13,x15
   13c5c:	slli	x15,x15,0x10
   13c60:	srai	x15,x15,0x10
   13c64:	sw	x14,0(x8)
   13c68:	sh	x15,12(x8)
   13c6c:	sw	x0,4(x8)
   13c70:	slli	x14,x15,0x13
   13c74:	blt	x14,x0,13d7c <__sflush_r+0x208>
   13c78:	lw	x11,48(x8)
   13c7c:	sw	x9,0(x19)
   13c80:	beq	x11,x0,13c98 <__sflush_r+0x124>
   13c84:	addi	x15,x8,64
   13c88:	beq	x11,x15,13c94 <__sflush_r+0x120>
   13c8c:	addi	x10,x19,0
   13c90:	jal	x1,142f4 <_free_r>
   13c94:	sw	x0,48(x8)
   13c98:	addi	x10,x0,0
   13c9c:	lw	x1,28(x2)
   13ca0:	lw	x8,24(x2)
   13ca4:	lw	x9,20(x2)
   13ca8:	lw	x18,16(x2)
   13cac:	lw	x19,12(x2)
   13cb0:	addi	x2,x2,32
   13cb4:	jalr	x0,x1,0
   13cb8:	lw	x18,16(x11)
   13cbc:	beq	x18,x0,13c98 <__sflush_r+0x124>
   13cc0:	lw	x9,0(x11)
   13cc4:	andi	x14,x14,3
   13cc8:	sw	x18,0(x11)
   13ccc:	sub	x9,x9,x18
   13cd0:	addi	x15,x0,0
   13cd4:	bne	x14,x0,13cdc <__sflush_r+0x168>
   13cd8:	lw	x15,20(x11)
   13cdc:	sw	x15,8(x8)
   13ce0:	blt	x0,x9,13cf0 <__sflush_r+0x17c>
   13ce4:	jal	x0,13c98 <__sflush_r+0x124>
   13ce8:	add	x18,x18,x10
   13cec:	bge	x0,x9,13c98 <__sflush_r+0x124>
   13cf0:	lw	x15,36(x8)
   13cf4:	lw	x11,28(x8)
   13cf8:	addi	x13,x9,0
   13cfc:	addi	x12,x18,0
   13d00:	addi	x10,x19,0
   13d04:	jalr	x1,x15,0
   13d08:	sub	x9,x9,x10
   13d0c:	blt	x0,x10,13ce8 <__sflush_r+0x174>
   13d10:	lhu	x15,12(x8)
   13d14:	addi	x10,x0,-1
   13d18:	ori	x15,x15,64
   13d1c:	sh	x15,12(x8)
   13d20:	jal	x0,13c9c <__sflush_r+0x128>
   13d24:	bne	x11,x10,13c48 <__sflush_r+0xd4>
   13d28:	lw	x14,0(x19)
   13d2c:	addi	x15,x0,29
   13d30:	bltu	x15,x14,13d10 <__sflush_r+0x19c>
   13d34:	lui	x15,0x20400
   13d38:	addi	x15,x15,1 # 20400001 <_gp+0x203e2a51>
   13d3c:	srl	x15,x15,x14
   13d40:	andi	x15,x15,1
   13d44:	beq	x15,x0,13d10 <__sflush_r+0x19c>
   13d48:	lhu	x12,12(x8)
   13d4c:	lui	x15,0xfffff
   13d50:	addi	x15,x15,2047 # fffff7ff <_gp+0xfffe224f>
   13d54:	lw	x13,16(x8)
   13d58:	and	x15,x12,x15
   13d5c:	slli	x15,x15,0x10
   13d60:	srai	x15,x15,0x10
   13d64:	sw	x13,0(x8)
   13d68:	sh	x15,12(x8)
   13d6c:	sw	x0,4(x8)
   13d70:	slli	x13,x15,0x13
   13d74:	bge	x13,x0,13c78 <__sflush_r+0x104>
   13d78:	bne	x14,x0,13c78 <__sflush_r+0x104>
   13d7c:	sw	x10,80(x8)
   13d80:	sw	x11,84(x8)
   13d84:	jal	x0,13c78 <__sflush_r+0x104>
   13d88:	lw	x14,60(x11)
   13d8c:	blt	x0,x14,13bc0 <__sflush_r+0x4c>
   13d90:	jal	x0,13c98 <__sflush_r+0x124>
   13d94:	lw	x11,28(x8)
   13d98:	addi	x12,x0,0
   13d9c:	addi	x13,x0,0
   13da0:	addi	x14,x0,1
   13da4:	addi	x10,x19,0
   13da8:	jalr	x1,x16,0
   13dac:	addi	x15,x0,-1
   13db0:	addi	x12,x10,0
   13db4:	addi	x13,x11,0
   13db8:	beq	x10,x15,13dc8 <__sflush_r+0x254>
   13dbc:	lhu	x15,12(x8)
   13dc0:	lw	x16,40(x8)
   13dc4:	jal	x0,13be8 <__sflush_r+0x74>
   13dc8:	bne	x11,x10,13dbc <__sflush_r+0x248>
   13dcc:	lw	x15,0(x19)
   13dd0:	beq	x15,x0,13dbc <__sflush_r+0x248>
   13dd4:	addi	x14,x0,29
   13dd8:	beq	x15,x14,13de4 <__sflush_r+0x270>
   13ddc:	addi	x14,x0,22
   13de0:	bne	x15,x14,13df0 <__sflush_r+0x27c>
   13de4:	sw	x9,0(x19)
   13de8:	addi	x10,x0,0
   13dec:	jal	x0,13c9c <__sflush_r+0x128>
   13df0:	lhu	x15,12(x8)
   13df4:	addi	x10,x11,0
   13df8:	ori	x15,x15,64
   13dfc:	sh	x15,12(x8)
   13e00:	jal	x0,13c9c <__sflush_r+0x128>

00013e04 <_fflush_r>:
   13e04:	addi	x2,x2,-32
   13e08:	sw	x8,24(x2)
   13e0c:	sw	x1,28(x2)
   13e10:	addi	x8,x10,0
   13e14:	beq	x10,x0,13e20 <_fflush_r+0x1c>
   13e18:	lw	x15,56(x10)
   13e1c:	beq	x15,x0,13e50 <_fflush_r+0x4c>
   13e20:	lh	x15,12(x11)
   13e24:	bne	x15,x0,13e3c <_fflush_r+0x38>
   13e28:	lw	x1,28(x2)
   13e2c:	addi	x10,x0,0
   13e30:	lw	x8,24(x2)
   13e34:	addi	x2,x2,32
   13e38:	jalr	x0,x1,0
   13e3c:	addi	x10,x8,0
   13e40:	lw	x1,28(x2)
   13e44:	lw	x8,24(x2)
   13e48:	addi	x2,x2,32
   13e4c:	jal	x0,13b74 <__sflush_r>
   13e50:	sw	x11,12(x2)
   13e54:	jal	x1,141b4 <__sinit>
   13e58:	lw	x11,12(x2)
   13e5c:	jal	x0,13e20 <_fflush_r+0x1c>

00013e60 <fflush>:
   13e60:	addi	x11,x10,0
   13e64:	beq	x10,x0,13e70 <fflush+0x10>
   13e68:	lw	x10,-2040(x3) # 1cdb8 <_impure_ptr>
   13e6c:	jal	x0,13e04 <_fflush_r>
   13e70:	lw	x10,-2044(x3) # 1cdb4 <_global_impure_ptr>
   13e74:	lui	x11,0x14
   13e78:	addi	x11,x11,-508 # 13e04 <_fflush_r>
   13e7c:	jal	x0,14684 <_fwalk_reent>

00013e80 <__fp_unlock>:
   13e80:	addi	x10,x0,0
   13e84:	jalr	x0,x1,0

00013e88 <_cleanup_r>:
   13e88:	lui	x11,0x18
   13e8c:	addi	x11,x11,-1560 # 179e8 <_fclose_r>
   13e90:	jal	x0,14684 <_fwalk_reent>

00013e94 <__sinit.part.1>:
   13e94:	addi	x2,x2,-32
   13e98:	lui	x15,0x14
   13e9c:	sw	x1,28(x2)
   13ea0:	sw	x8,24(x2)
   13ea4:	sw	x9,20(x2)
   13ea8:	lw	x8,4(x10)
   13eac:	sw	x18,16(x2)
   13eb0:	sw	x19,12(x2)
   13eb4:	sw	x20,8(x2)
   13eb8:	sw	x21,4(x2)
   13ebc:	sw	x22,0(x2)
   13ec0:	addi	x15,x15,-376 # 13e88 <_cleanup_r>
   13ec4:	sw	x15,60(x10)
   13ec8:	addi	x14,x10,752
   13ecc:	addi	x15,x0,3
   13ed0:	sw	x14,744(x10)
   13ed4:	sw	x15,740(x10)
   13ed8:	sw	x0,736(x10)
   13edc:	addi	x15,x0,4
   13ee0:	addi	x18,x10,0
   13ee4:	sh	x15,12(x8)
   13ee8:	addi	x12,x0,8
   13eec:	addi	x11,x0,0
   13ef0:	sw	x0,0(x8)
   13ef4:	sw	x0,4(x8)
   13ef8:	sw	x0,8(x8)
   13efc:	sw	x0,104(x8)
   13f00:	sh	x0,14(x8)
   13f04:	sw	x0,16(x8)
   13f08:	sw	x0,20(x8)
   13f0c:	sw	x0,24(x8)
   13f10:	addi	x10,x8,96
   13f14:	jal	x1,152b8 <memset>
   13f18:	lui	x22,0x16
   13f1c:	lw	x9,8(x18)
   13f20:	lui	x21,0x16
   13f24:	lui	x20,0x16
   13f28:	lui	x19,0x16
   13f2c:	addi	x22,x22,1056 # 16420 <__sread>
   13f30:	addi	x21,x21,1188 # 164a4 <__swrite>
   13f34:	addi	x20,x20,1308 # 1651c <__sseek>
   13f38:	addi	x19,x19,1416 # 16588 <__sclose>
   13f3c:	sw	x22,32(x8)
   13f40:	sw	x21,36(x8)
   13f44:	sw	x20,40(x8)
   13f48:	sw	x19,44(x8)
   13f4c:	sw	x8,28(x8)
   13f50:	addi	x15,x0,9
   13f54:	sh	x15,12(x9)
   13f58:	addi	x15,x0,1
   13f5c:	sh	x15,14(x9)
   13f60:	addi	x12,x0,8
   13f64:	addi	x11,x0,0
   13f68:	sw	x0,0(x9)
   13f6c:	sw	x0,4(x9)
   13f70:	sw	x0,8(x9)
   13f74:	sw	x0,104(x9)
   13f78:	sw	x0,16(x9)
   13f7c:	sw	x0,20(x9)
   13f80:	sw	x0,24(x9)
   13f84:	addi	x10,x9,96
   13f88:	jal	x1,152b8 <memset>
   13f8c:	lw	x8,12(x18)
   13f90:	addi	x15,x0,18
   13f94:	sw	x22,32(x9)
   13f98:	sw	x21,36(x9)
   13f9c:	sw	x20,40(x9)
   13fa0:	sw	x19,44(x9)
   13fa4:	sw	x9,28(x9)
   13fa8:	sh	x15,12(x8)
   13fac:	addi	x15,x0,2
   13fb0:	sh	x15,14(x8)
   13fb4:	sw	x0,0(x8)
   13fb8:	sw	x0,4(x8)
   13fbc:	sw	x0,8(x8)
   13fc0:	sw	x0,104(x8)
   13fc4:	sw	x0,16(x8)
   13fc8:	sw	x0,20(x8)
   13fcc:	sw	x0,24(x8)
   13fd0:	addi	x10,x8,96
   13fd4:	addi	x12,x0,8
   13fd8:	addi	x11,x0,0
   13fdc:	jal	x1,152b8 <memset>
   13fe0:	lw	x1,28(x2)
   13fe4:	sw	x22,32(x8)
   13fe8:	sw	x21,36(x8)
   13fec:	sw	x20,40(x8)
   13ff0:	sw	x19,44(x8)
   13ff4:	sw	x8,28(x8)
   13ff8:	addi	x15,x0,1
   13ffc:	sw	x15,56(x18)
   14000:	lw	x8,24(x2)
   14004:	lw	x9,20(x2)
   14008:	lw	x18,16(x2)
   1400c:	lw	x19,12(x2)
   14010:	lw	x20,8(x2)
   14014:	lw	x21,4(x2)
   14018:	lw	x22,0(x2)
   1401c:	addi	x2,x2,32
   14020:	jalr	x0,x1,0

00014024 <__fp_lock>:
   14024:	addi	x10,x0,0
   14028:	jalr	x0,x1,0

0001402c <__sfmoreglue>:
   1402c:	addi	x2,x2,-16
   14030:	addi	x15,x11,-1
   14034:	sw	x8,8(x2)
   14038:	slli	x8,x15,0x4
   1403c:	slli	x15,x15,0x7
   14040:	sub	x8,x15,x8
   14044:	sw	x18,0(x2)
   14048:	addi	x18,x11,0
   1404c:	addi	x11,x8,128
   14050:	sw	x9,4(x2)
   14054:	sw	x1,12(x2)
   14058:	jal	x1,1499c <_malloc_r>
   1405c:	addi	x9,x10,0
   14060:	beq	x10,x0,14080 <__sfmoreglue+0x54>
   14064:	addi	x10,x10,16
   14068:	sw	x0,0(x9)
   1406c:	sw	x18,4(x9)
   14070:	sw	x10,8(x9)
   14074:	addi	x12,x8,112
   14078:	addi	x11,x0,0
   1407c:	jal	x1,152b8 <memset>
   14080:	lw	x1,12(x2)
   14084:	addi	x10,x9,0
   14088:	lw	x8,8(x2)
   1408c:	lw	x9,4(x2)
   14090:	lw	x18,0(x2)
   14094:	addi	x2,x2,16
   14098:	jalr	x0,x1,0

0001409c <__sfp>:
   1409c:	addi	x2,x2,-32
   140a0:	sw	x18,16(x2)
   140a4:	lw	x18,-2044(x3) # 1cdb4 <_global_impure_ptr>
   140a8:	sw	x19,12(x2)
   140ac:	sw	x1,28(x2)
   140b0:	lw	x15,56(x18)
   140b4:	sw	x8,24(x2)
   140b8:	sw	x9,20(x2)
   140bc:	addi	x19,x10,0
   140c0:	bne	x15,x0,140cc <__sfp+0x30>
   140c4:	addi	x10,x18,0
   140c8:	jal	x1,13e94 <__sinit.part.1>
   140cc:	addi	x18,x18,736
   140d0:	addi	x9,x0,-1
   140d4:	lw	x15,4(x18)
   140d8:	lw	x8,8(x18)
   140dc:	addi	x15,x15,-1
   140e0:	bge	x15,x0,140f4 <__sfp+0x58>
   140e4:	jal	x0,14168 <__sfp+0xcc>
   140e8:	addi	x15,x15,-1
   140ec:	addi	x8,x8,112
   140f0:	beq	x15,x9,14168 <__sfp+0xcc>
   140f4:	lh	x14,12(x8)
   140f8:	bne	x14,x0,140e8 <__sfp+0x4c>
   140fc:	addi	x15,x0,-1
   14100:	sh	x15,14(x8)
   14104:	addi	x15,x0,1
   14108:	sh	x15,12(x8)
   1410c:	sw	x0,104(x8)
   14110:	sw	x0,0(x8)
   14114:	sw	x0,8(x8)
   14118:	sw	x0,4(x8)
   1411c:	sw	x0,16(x8)
   14120:	sw	x0,20(x8)
   14124:	sw	x0,24(x8)
   14128:	addi	x12,x0,8
   1412c:	addi	x11,x0,0
   14130:	addi	x10,x8,96
   14134:	jal	x1,152b8 <memset>
   14138:	addi	x10,x8,0
   1413c:	sw	x0,48(x8)
   14140:	sw	x0,52(x8)
   14144:	sw	x0,68(x8)
   14148:	sw	x0,72(x8)
   1414c:	lw	x1,28(x2)
   14150:	lw	x8,24(x2)
   14154:	lw	x9,20(x2)
   14158:	lw	x18,16(x2)
   1415c:	lw	x19,12(x2)
   14160:	addi	x2,x2,32
   14164:	jalr	x0,x1,0
   14168:	lw	x15,0(x18)
   1416c:	beq	x15,x0,14178 <__sfp+0xdc>
   14170:	addi	x18,x15,0
   14174:	jal	x0,140d4 <__sfp+0x38>
   14178:	addi	x11,x0,4
   1417c:	addi	x10,x19,0
   14180:	jal	x1,1402c <__sfmoreglue>
   14184:	sw	x10,0(x18)
   14188:	beq	x10,x0,14194 <__sfp+0xf8>
   1418c:	addi	x18,x10,0
   14190:	jal	x0,140d4 <__sfp+0x38>
   14194:	addi	x15,x0,12
   14198:	sw	x15,0(x19)
   1419c:	addi	x10,x0,0
   141a0:	jal	x0,1414c <__sfp+0xb0>

000141a4 <_cleanup>:
   141a4:	lw	x10,-2044(x3) # 1cdb4 <_global_impure_ptr>
   141a8:	lui	x11,0x18
   141ac:	addi	x11,x11,-1560 # 179e8 <_fclose_r>
   141b0:	jal	x0,14684 <_fwalk_reent>

000141b4 <__sinit>:
   141b4:	lw	x15,56(x10)
   141b8:	beq	x15,x0,141c0 <__sinit+0xc>
   141bc:	jalr	x0,x1,0
   141c0:	jal	x0,13e94 <__sinit.part.1>

000141c4 <__sfp_lock_acquire>:
   141c4:	jalr	x0,x1,0

000141c8 <__sfp_lock_release>:
   141c8:	jalr	x0,x1,0

000141cc <__sinit_lock_acquire>:
   141cc:	jalr	x0,x1,0

000141d0 <__sinit_lock_release>:
   141d0:	jalr	x0,x1,0

000141d4 <__fp_lock_all>:
   141d4:	lw	x10,-2040(x3) # 1cdb8 <_impure_ptr>
   141d8:	lui	x11,0x14
   141dc:	addi	x11,x11,36 # 14024 <__fp_lock>
   141e0:	jal	x0,145d4 <_fwalk>

000141e4 <__fp_unlock_all>:
   141e4:	lw	x10,-2040(x3) # 1cdb8 <_impure_ptr>
   141e8:	lui	x11,0x14
   141ec:	addi	x11,x11,-384 # 13e80 <__fp_unlock>
   141f0:	jal	x0,145d4 <_fwalk>

000141f4 <_malloc_trim_r>:
   141f4:	addi	x2,x2,-32
   141f8:	sw	x18,16(x2)
   141fc:	lui	x18,0x1d
   14200:	sw	x8,24(x2)
   14204:	sw	x9,20(x2)
   14208:	addi	x8,x11,0
   1420c:	sw	x19,12(x2)
   14210:	sw	x1,28(x2)
   14214:	addi	x19,x10,0
   14218:	addi	x18,x18,-1624 # 1c9a8 <__malloc_av_>
   1421c:	jal	x1,15394 <__malloc_lock>
   14220:	lw	x14,8(x18)
   14224:	lui	x15,0x1
   14228:	addi	x11,x15,-17 # fef <_ftext-0xf011>
   1422c:	lw	x9,4(x14)
   14230:	andi	x9,x9,-4
   14234:	sub	x8,x9,x8
   14238:	add	x8,x8,x11
   1423c:	srli	x8,x8,0xc
   14240:	addi	x8,x8,-1
   14244:	slli	x8,x8,0xc
   14248:	blt	x8,x15,14260 <_malloc_trim_r+0x6c>
   1424c:	addi	x10,x0,0
   14250:	jal	x1,18ec8 <sbrk>
   14254:	lw	x15,8(x18)
   14258:	add	x15,x15,x9
   1425c:	beq	x10,x15,14288 <_malloc_trim_r+0x94>
   14260:	addi	x10,x19,0
   14264:	jal	x1,15398 <__malloc_unlock>
   14268:	addi	x10,x0,0
   1426c:	lw	x1,28(x2)
   14270:	lw	x8,24(x2)
   14274:	lw	x9,20(x2)
   14278:	lw	x18,16(x2)
   1427c:	lw	x19,12(x2)
   14280:	addi	x2,x2,32
   14284:	jalr	x0,x1,0
   14288:	sub	x10,x0,x8
   1428c:	jal	x1,18ec8 <sbrk>
   14290:	addi	x15,x0,-1
   14294:	beq	x10,x15,142c4 <_malloc_trim_r+0xd0>
   14298:	lw	x15,-1868(x3) # 1ce64 <__malloc_current_mallinfo>
   1429c:	lw	x13,8(x18)
   142a0:	sub	x9,x9,x8
   142a4:	ori	x9,x9,1
   142a8:	sub	x8,x15,x8
   142ac:	addi	x10,x19,0
   142b0:	sw	x9,4(x13)
   142b4:	sw	x8,-1868(x3) # 1ce64 <__malloc_current_mallinfo>
   142b8:	jal	x1,15398 <__malloc_unlock>
   142bc:	addi	x10,x0,1
   142c0:	jal	x0,1426c <_malloc_trim_r+0x78>
   142c4:	addi	x10,x0,0
   142c8:	jal	x1,18ec8 <sbrk>
   142cc:	lw	x14,8(x18)
   142d0:	addi	x13,x0,15
   142d4:	sub	x15,x10,x14
   142d8:	bge	x13,x15,14260 <_malloc_trim_r+0x6c>
   142dc:	lw	x13,-2032(x3) # 1cdc0 <__malloc_sbrk_base>
   142e0:	ori	x15,x15,1
   142e4:	sw	x15,4(x14)
   142e8:	sub	x10,x10,x13
   142ec:	sw	x10,-1868(x3) # 1ce64 <__malloc_current_mallinfo>
   142f0:	jal	x0,14260 <_malloc_trim_r+0x6c>

000142f4 <_free_r>:
   142f4:	beq	x11,x0,143f0 <_free_r+0xfc>
   142f8:	addi	x2,x2,-16
   142fc:	sw	x8,8(x2)
   14300:	sw	x9,4(x2)
   14304:	addi	x8,x11,0
   14308:	addi	x9,x10,0
   1430c:	sw	x1,12(x2)
   14310:	jal	x1,15394 <__malloc_lock>
   14314:	lw	x10,-4(x8)
   14318:	addi	x13,x8,-8
   1431c:	lui	x11,0x1d
   14320:	andi	x15,x10,-2
   14324:	add	x12,x13,x15
   14328:	addi	x11,x11,-1624 # 1c9a8 <__malloc_av_>
   1432c:	lw	x14,4(x12)
   14330:	lw	x16,8(x11)
   14334:	andi	x14,x14,-4
   14338:	beq	x12,x16,14484 <_free_r+0x190>
   1433c:	sw	x14,4(x12)
   14340:	andi	x10,x10,1
   14344:	bne	x10,x0,14370 <_free_r+0x7c>
   14348:	lw	x10,-8(x8)
   1434c:	sub	x13,x13,x10
   14350:	lw	x16,8(x13)
   14354:	add	x15,x15,x10
   14358:	lui	x10,0x1d
   1435c:	addi	x10,x10,-1616 # 1c9b0 <__malloc_av_+0x8>
   14360:	beq	x16,x10,144d0 <_free_r+0x1dc>
   14364:	lw	x10,12(x13)
   14368:	sw	x10,12(x16)
   1436c:	sw	x16,8(x10)
   14370:	add	x10,x12,x14
   14374:	lw	x10,4(x10)
   14378:	andi	x10,x10,1
   1437c:	beq	x10,x0,14450 <_free_r+0x15c>
   14380:	ori	x14,x15,1
   14384:	sw	x14,4(x13)
   14388:	add	x14,x13,x15
   1438c:	sw	x15,0(x14)
   14390:	addi	x14,x0,511
   14394:	bltu	x14,x15,143f4 <_free_r+0x100>
   14398:	srli	x15,x15,0x3
   1439c:	addi	x14,x15,1
   143a0:	slli	x14,x14,0x3
   143a4:	lw	x12,4(x11)
   143a8:	add	x14,x11,x14
   143ac:	lw	x16,0(x14)
   143b0:	srai	x15,x15,0x2
   143b4:	addi	x10,x0,1
   143b8:	sll	x15,x10,x15
   143bc:	or	x15,x15,x12
   143c0:	addi	x12,x14,-8
   143c4:	sw	x12,12(x13)
   143c8:	sw	x16,8(x13)
   143cc:	sw	x15,4(x11)
   143d0:	sw	x13,0(x14)
   143d4:	sw	x13,12(x16)
   143d8:	addi	x10,x9,0
   143dc:	lw	x1,12(x2)
   143e0:	lw	x8,8(x2)
   143e4:	lw	x9,4(x2)
   143e8:	addi	x2,x2,16
   143ec:	jal	x0,15398 <__malloc_unlock>
   143f0:	jalr	x0,x1,0
   143f4:	srli	x14,x15,0x9
   143f8:	addi	x12,x0,4
   143fc:	bltu	x12,x14,14508 <_free_r+0x214>
   14400:	srli	x14,x15,0x6
   14404:	addi	x10,x14,57
   14408:	addi	x12,x14,56
   1440c:	slli	x10,x10,0x1
   14410:	slli	x10,x10,0x2
   14414:	add	x10,x11,x10
   14418:	lw	x14,0(x10)
   1441c:	addi	x10,x10,-8
   14420:	beq	x10,x14,14520 <_free_r+0x22c>
   14424:	lw	x12,4(x14)
   14428:	andi	x12,x12,-4
   1442c:	bgeu	x15,x12,14438 <_free_r+0x144>
   14430:	lw	x14,8(x14)
   14434:	bne	x10,x14,14424 <_free_r+0x130>
   14438:	lw	x10,12(x14)
   1443c:	sw	x10,12(x13)
   14440:	sw	x14,8(x13)
   14444:	sw	x13,8(x10)
   14448:	sw	x13,12(x14)
   1444c:	jal	x0,143d8 <_free_r+0xe4>
   14450:	lw	x10,8(x12)
   14454:	add	x15,x15,x14
   14458:	lui	x14,0x1d
   1445c:	addi	x14,x14,-1616 # 1c9b0 <__malloc_av_+0x8>
   14460:	beq	x10,x14,14540 <_free_r+0x24c>
   14464:	lw	x16,12(x12)
   14468:	ori	x12,x15,1
   1446c:	add	x14,x13,x15
   14470:	sw	x16,12(x10)
   14474:	sw	x10,8(x16)
   14478:	sw	x12,4(x13)
   1447c:	sw	x15,0(x14)
   14480:	jal	x0,14390 <_free_r+0x9c>
   14484:	andi	x10,x10,1
   14488:	add	x15,x15,x14
   1448c:	bne	x10,x0,144ac <_free_r+0x1b8>
   14490:	lw	x10,-8(x8)
   14494:	sub	x13,x13,x10
   14498:	lw	x14,12(x13)
   1449c:	lw	x12,8(x13)
   144a0:	add	x15,x15,x10
   144a4:	sw	x14,12(x12)
   144a8:	sw	x12,8(x14)
   144ac:	ori	x12,x15,1
   144b0:	lw	x14,-2028(x3) # 1cdc4 <__malloc_trim_threshold>
   144b4:	sw	x12,4(x13)
   144b8:	sw	x13,8(x11)
   144bc:	bltu	x15,x14,143d8 <_free_r+0xe4>
   144c0:	lw	x11,-1908(x3) # 1ce3c <__malloc_top_pad>
   144c4:	addi	x10,x9,0
   144c8:	jal	x1,141f4 <_malloc_trim_r>
   144cc:	jal	x0,143d8 <_free_r+0xe4>
   144d0:	add	x11,x12,x14
   144d4:	lw	x11,4(x11)
   144d8:	andi	x11,x11,1
   144dc:	bne	x11,x0,145c0 <_free_r+0x2cc>
   144e0:	lw	x11,8(x12)
   144e4:	lw	x12,12(x12)
   144e8:	add	x15,x14,x15
   144ec:	ori	x14,x15,1
   144f0:	sw	x12,12(x11)
   144f4:	sw	x11,8(x12)
   144f8:	sw	x14,4(x13)
   144fc:	add	x13,x13,x15
   14500:	sw	x15,0(x13)
   14504:	jal	x0,143d8 <_free_r+0xe4>
   14508:	addi	x12,x0,20
   1450c:	bltu	x12,x14,14564 <_free_r+0x270>
   14510:	addi	x10,x14,92
   14514:	addi	x12,x14,91
   14518:	slli	x10,x10,0x1
   1451c:	jal	x0,14410 <_free_r+0x11c>
   14520:	lw	x15,4(x11)
   14524:	srai	x14,x12,0x2
   14528:	addi	x12,x0,1
   1452c:	sll	x14,x12,x14
   14530:	or	x15,x14,x15
   14534:	sw	x15,4(x11)
   14538:	addi	x14,x10,0
   1453c:	jal	x0,1443c <_free_r+0x148>
   14540:	sw	x13,20(x11)
   14544:	sw	x13,16(x11)
   14548:	ori	x14,x15,1
   1454c:	sw	x10,12(x13)
   14550:	sw	x10,8(x13)
   14554:	sw	x14,4(x13)
   14558:	add	x13,x13,x15
   1455c:	sw	x15,0(x13)
   14560:	jal	x0,143d8 <_free_r+0xe4>
   14564:	addi	x12,x0,84
   14568:	bltu	x12,x14,14580 <_free_r+0x28c>
   1456c:	srli	x14,x15,0xc
   14570:	addi	x10,x14,111
   14574:	addi	x12,x14,110
   14578:	slli	x10,x10,0x1
   1457c:	jal	x0,14410 <_free_r+0x11c>
   14580:	addi	x12,x0,340
   14584:	bltu	x12,x14,1459c <_free_r+0x2a8>
   14588:	srli	x14,x15,0xf
   1458c:	addi	x10,x14,120
   14590:	addi	x12,x14,119
   14594:	slli	x10,x10,0x1
   14598:	jal	x0,14410 <_free_r+0x11c>
   1459c:	addi	x16,x0,1364
   145a0:	addi	x10,x0,254
   145a4:	addi	x12,x0,126
   145a8:	bltu	x16,x14,14410 <_free_r+0x11c>
   145ac:	srli	x14,x15,0x12
   145b0:	addi	x10,x14,125
   145b4:	addi	x12,x14,124
   145b8:	slli	x10,x10,0x1
   145bc:	jal	x0,14410 <_free_r+0x11c>
   145c0:	ori	x14,x15,1
   145c4:	sw	x14,4(x13)
   145c8:	add	x13,x13,x15
   145cc:	sw	x15,0(x13)
   145d0:	jal	x0,143d8 <_free_r+0xe4>

000145d4 <_fwalk>:
   145d4:	addi	x2,x2,-32
   145d8:	sw	x21,4(x2)
   145dc:	sw	x1,28(x2)
   145e0:	sw	x8,24(x2)
   145e4:	sw	x9,20(x2)
   145e8:	sw	x18,16(x2)
   145ec:	sw	x19,12(x2)
   145f0:	sw	x20,8(x2)
   145f4:	sw	x22,0(x2)
   145f8:	addi	x21,x10,736
   145fc:	beq	x21,x0,1467c <_fwalk+0xa8>
   14600:	addi	x22,x11,0
   14604:	addi	x20,x0,0
   14608:	addi	x19,x0,1
   1460c:	addi	x18,x0,-1
   14610:	lw	x9,4(x21)
   14614:	lw	x8,8(x21)
   14618:	addi	x9,x9,-1
   1461c:	blt	x9,x0,14648 <_fwalk+0x74>
   14620:	lhu	x15,12(x8)
   14624:	addi	x9,x9,-1
   14628:	bgeu	x19,x15,14640 <_fwalk+0x6c>
   1462c:	lh	x15,14(x8)
   14630:	addi	x10,x8,0
   14634:	beq	x15,x18,14640 <_fwalk+0x6c>
   14638:	jalr	x1,x22,0
   1463c:	or	x20,x20,x10
   14640:	addi	x8,x8,112
   14644:	bne	x9,x18,14620 <_fwalk+0x4c>
   14648:	lw	x21,0(x21)
   1464c:	bne	x21,x0,14610 <_fwalk+0x3c>
   14650:	lw	x1,28(x2)
   14654:	addi	x10,x20,0
   14658:	lw	x8,24(x2)
   1465c:	lw	x9,20(x2)
   14660:	lw	x18,16(x2)
   14664:	lw	x19,12(x2)
   14668:	lw	x20,8(x2)
   1466c:	lw	x21,4(x2)
   14670:	lw	x22,0(x2)
   14674:	addi	x2,x2,32
   14678:	jalr	x0,x1,0
   1467c:	addi	x20,x0,0
   14680:	jal	x0,14650 <_fwalk+0x7c>

00014684 <_fwalk_reent>:
   14684:	addi	x2,x2,-48
   14688:	sw	x22,16(x2)
   1468c:	sw	x1,44(x2)
   14690:	sw	x8,40(x2)
   14694:	sw	x9,36(x2)
   14698:	sw	x18,32(x2)
   1469c:	sw	x19,28(x2)
   146a0:	sw	x20,24(x2)
   146a4:	sw	x21,20(x2)
   146a8:	sw	x23,12(x2)
   146ac:	addi	x22,x10,736
   146b0:	beq	x22,x0,1473c <_fwalk_reent+0xb8>
   146b4:	addi	x23,x11,0
   146b8:	addi	x21,x10,0
   146bc:	addi	x20,x0,0
   146c0:	addi	x19,x0,1
   146c4:	addi	x18,x0,-1
   146c8:	lw	x9,4(x22)
   146cc:	lw	x8,8(x22)
   146d0:	addi	x9,x9,-1
   146d4:	blt	x9,x0,14704 <_fwalk_reent+0x80>
   146d8:	lhu	x15,12(x8)
   146dc:	addi	x9,x9,-1
   146e0:	bgeu	x19,x15,146fc <_fwalk_reent+0x78>
   146e4:	lh	x15,14(x8)
   146e8:	addi	x11,x8,0
   146ec:	addi	x10,x21,0
   146f0:	beq	x15,x18,146fc <_fwalk_reent+0x78>
   146f4:	jalr	x1,x23,0
   146f8:	or	x20,x20,x10
   146fc:	addi	x8,x8,112
   14700:	bne	x9,x18,146d8 <_fwalk_reent+0x54>
   14704:	lw	x22,0(x22)
   14708:	bne	x22,x0,146c8 <_fwalk_reent+0x44>
   1470c:	lw	x1,44(x2)
   14710:	addi	x10,x20,0
   14714:	lw	x8,40(x2)
   14718:	lw	x9,36(x2)
   1471c:	lw	x18,32(x2)
   14720:	lw	x19,28(x2)
   14724:	lw	x20,24(x2)
   14728:	lw	x21,20(x2)
   1472c:	lw	x22,16(x2)
   14730:	lw	x23,12(x2)
   14734:	addi	x2,x2,48
   14738:	jalr	x0,x1,0
   1473c:	addi	x20,x0,0
   14740:	jal	x0,1470c <_fwalk_reent+0x88>

00014744 <_setlocale_r>:
   14744:	addi	x2,x2,-16
   14748:	sw	x9,4(x2)
   1474c:	sw	x1,12(x2)
   14750:	sw	x8,8(x2)
   14754:	lui	x9,0x1b
   14758:	beq	x12,x0,14778 <_setlocale_r+0x34>
   1475c:	lui	x11,0x1b
   14760:	addi	x11,x11,548 # 1b224 <__clz_tab+0x174>
   14764:	addi	x10,x12,0
   14768:	addi	x8,x12,0
   1476c:	jal	x1,16590 <strcmp>
   14770:	lui	x9,0x1b
   14774:	bne	x10,x0,14790 <_setlocale_r+0x4c>
   14778:	addi	x10,x9,460 # 1b1cc <__clz_tab+0x11c>
   1477c:	lw	x1,12(x2)
   14780:	lw	x8,8(x2)
   14784:	lw	x9,4(x2)
   14788:	addi	x2,x2,16
   1478c:	jalr	x0,x1,0
   14790:	addi	x11,x9,460
   14794:	addi	x10,x8,0
   14798:	jal	x1,16590 <strcmp>
   1479c:	beq	x10,x0,14778 <_setlocale_r+0x34>
   147a0:	lui	x11,0x1b
   147a4:	addi	x11,x11,496 # 1b1f0 <__clz_tab+0x140>
   147a8:	addi	x10,x8,0
   147ac:	jal	x1,16590 <strcmp>
   147b0:	beq	x10,x0,14778 <_setlocale_r+0x34>
   147b4:	addi	x10,x0,0
   147b8:	jal	x0,1477c <_setlocale_r+0x38>

000147bc <__locale_charset>:
   147bc:	lui	x10,0x1d
   147c0:	addi	x10,x10,-1744 # 1c930 <lc_ctype_charset>
   147c4:	jalr	x0,x1,0

000147c8 <__locale_mb_cur_max>:
   147c8:	lw	x10,-2036(x3) # 1cdbc <__mb_cur_max>
   147cc:	jalr	x0,x1,0

000147d0 <__locale_msgcharset>:
   147d0:	lui	x10,0x1d
   147d4:	addi	x10,x10,-1712 # 1c950 <lc_message_charset>
   147d8:	jalr	x0,x1,0

000147dc <__locale_cjk_lang>:
   147dc:	addi	x10,x0,0
   147e0:	jalr	x0,x1,0

000147e4 <_localeconv_r>:
   147e4:	lui	x10,0x1d
   147e8:	addi	x10,x10,-1680 # 1c970 <lconv>
   147ec:	jalr	x0,x1,0

000147f0 <setlocale>:
   147f0:	addi	x12,x11,0
   147f4:	addi	x11,x10,0
   147f8:	lw	x10,-2040(x3) # 1cdb8 <_impure_ptr>
   147fc:	jal	x0,14744 <_setlocale_r>

00014800 <localeconv>:
   14800:	lui	x10,0x1d
   14804:	addi	x10,x10,-1680 # 1c970 <lconv>
   14808:	jalr	x0,x1,0

0001480c <__smakebuf_r>:
   1480c:	lh	x15,12(x11)
   14810:	addi	x2,x2,-144
   14814:	sw	x9,132(x2)
   14818:	slli	x9,x15,0x10
   1481c:	srli	x9,x9,0x10
   14820:	sw	x1,140(x2)
   14824:	sw	x8,136(x2)
   14828:	sw	x18,128(x2)
   1482c:	sw	x19,124(x2)
   14830:	andi	x14,x9,2
   14834:	bne	x14,x0,14914 <__smakebuf_r+0x108>
   14838:	addi	x18,x10,0
   1483c:	lh	x10,14(x11)
   14840:	addi	x8,x11,0
   14844:	blt	x10,x0,1489c <__smakebuf_r+0x90>
   14848:	addi	x11,x2,0
   1484c:	jal	x1,18c14 <fstat>
   14850:	blt	x10,x0,14890 <__smakebuf_r+0x84>
   14854:	lw	x14,16(x2)
   14858:	lui	x15,0xf
   1485c:	lui	x19,0xffffe
   14860:	and	x15,x14,x15
   14864:	add	x19,x15,x19
   14868:	lui	x14,0x8
   1486c:	sltiu	x19,x19,1
   14870:	beq	x15,x14,1492c <__smakebuf_r+0x120>
   14874:	lhu	x14,12(x8)
   14878:	lui	x15,0x1
   1487c:	addi	x15,x15,-2048 # 800 <_ftext-0xf800>
   14880:	or	x15,x14,x15
   14884:	sh	x15,12(x8)
   14888:	addi	x9,x0,1024
   1488c:	jal	x0,148c0 <__smakebuf_r+0xb4>
   14890:	lh	x15,12(x8)
   14894:	slli	x9,x15,0x10
   14898:	srli	x9,x9,0x10
   1489c:	slli	x9,x9,0x18
   148a0:	lui	x14,0x1
   148a4:	srai	x9,x9,0x1f
   148a8:	addi	x14,x14,-2048 # 800 <_ftext-0xf800>
   148ac:	andi	x9,x9,-960
   148b0:	or	x15,x15,x14
   148b4:	addi	x9,x9,1024
   148b8:	sh	x15,12(x8)
   148bc:	addi	x19,x0,0
   148c0:	addi	x11,x9,0
   148c4:	addi	x10,x18,0
   148c8:	jal	x1,1499c <_malloc_r>
   148cc:	beq	x10,x0,14970 <__smakebuf_r+0x164>
   148d0:	lhu	x15,12(x8)
   148d4:	lui	x14,0x14
   148d8:	addi	x14,x14,-376 # 13e88 <_cleanup_r>
   148dc:	sw	x14,60(x18)
   148e0:	ori	x15,x15,128
   148e4:	sh	x15,12(x8)
   148e8:	sw	x10,0(x8)
   148ec:	sw	x10,16(x8)
   148f0:	sw	x9,20(x8)
   148f4:	bne	x19,x0,14954 <__smakebuf_r+0x148>
   148f8:	lw	x1,140(x2)
   148fc:	lw	x8,136(x2)
   14900:	lw	x9,132(x2)
   14904:	lw	x18,128(x2)
   14908:	lw	x19,124(x2)
   1490c:	addi	x2,x2,144
   14910:	jalr	x0,x1,0
   14914:	addi	x15,x11,67
   14918:	sw	x15,0(x11)
   1491c:	sw	x15,16(x11)
   14920:	addi	x15,x0,1
   14924:	sw	x15,20(x11)
   14928:	jal	x0,148f8 <__smakebuf_r+0xec>
   1492c:	lw	x14,40(x8)
   14930:	lui	x15,0x16
   14934:	addi	x15,x15,1308 # 1651c <__sseek>
   14938:	bne	x14,x15,14874 <__smakebuf_r+0x68>
   1493c:	lhu	x15,12(x8)
   14940:	addi	x9,x0,1024
   14944:	sw	x9,76(x8)
   14948:	or	x15,x15,x9
   1494c:	sh	x15,12(x8)
   14950:	jal	x0,148c0 <__smakebuf_r+0xb4>
   14954:	lh	x10,14(x8)
   14958:	jal	x1,18d7c <isatty>
   1495c:	beq	x10,x0,148f8 <__smakebuf_r+0xec>
   14960:	lhu	x15,12(x8)
   14964:	ori	x15,x15,1
   14968:	sh	x15,12(x8)
   1496c:	jal	x0,148f8 <__smakebuf_r+0xec>
   14970:	lh	x15,12(x8)
   14974:	andi	x14,x15,512
   14978:	bne	x14,x0,148f8 <__smakebuf_r+0xec>
   1497c:	ori	x15,x15,2
   14980:	addi	x14,x8,67
   14984:	sh	x15,12(x8)
   14988:	addi	x15,x0,1
   1498c:	sw	x14,0(x8)
   14990:	sw	x14,16(x8)
   14994:	sw	x15,20(x8)
   14998:	jal	x0,148f8 <__smakebuf_r+0xec>

0001499c <_malloc_r>:
   1499c:	addi	x2,x2,-48
   149a0:	sw	x9,36(x2)
   149a4:	sw	x19,28(x2)
   149a8:	sw	x1,44(x2)
   149ac:	sw	x8,40(x2)
   149b0:	sw	x18,32(x2)
   149b4:	sw	x20,24(x2)
   149b8:	sw	x21,20(x2)
   149bc:	sw	x22,16(x2)
   149c0:	sw	x23,12(x2)
   149c4:	sw	x24,8(x2)
   149c8:	sw	x25,4(x2)
   149cc:	addi	x9,x11,11
   149d0:	addi	x15,x0,22
   149d4:	addi	x19,x10,0
   149d8:	bgeu	x15,x9,14b90 <_malloc_r+0x1f4>
   149dc:	andi	x9,x9,-8
   149e0:	blt	x9,x0,14c28 <_malloc_r+0x28c>
   149e4:	bltu	x9,x11,14c28 <_malloc_r+0x28c>
   149e8:	jal	x1,15394 <__malloc_lock>
   149ec:	addi	x15,x0,503
   149f0:	bgeu	x15,x9,150b0 <_malloc_r+0x714>
   149f4:	srli	x15,x9,0x9
   149f8:	addi	x13,x0,128
   149fc:	addi	x10,x0,64
   14a00:	addi	x11,x0,63
   14a04:	bne	x15,x0,14c38 <_malloc_r+0x29c>
   14a08:	lui	x18,0x1d
   14a0c:	addi	x18,x18,-1624 # 1c9a8 <__malloc_av_>
   14a10:	slli	x13,x13,0x2
   14a14:	add	x13,x18,x13
   14a18:	lw	x8,4(x13)
   14a1c:	addi	x13,x13,-8
   14a20:	beq	x13,x8,14c54 <_malloc_r+0x2b8>
   14a24:	lw	x15,4(x8)
   14a28:	addi	x12,x0,15
   14a2c:	andi	x15,x15,-4
   14a30:	sub	x14,x15,x9
   14a34:	blt	x12,x14,14a54 <_malloc_r+0xb8>
   14a38:	bge	x14,x0,14c5c <_malloc_r+0x2c0>
   14a3c:	lw	x8,12(x8)
   14a40:	beq	x13,x8,14c54 <_malloc_r+0x2b8>
   14a44:	lw	x15,4(x8)
   14a48:	andi	x15,x15,-4
   14a4c:	sub	x14,x15,x9
   14a50:	bge	x12,x14,14a38 <_malloc_r+0x9c>
   14a54:	addi	x13,x11,0
   14a58:	lw	x8,16(x18)
   14a5c:	addi	x16,x18,8
   14a60:	beq	x8,x16,14eb0 <_malloc_r+0x514>
   14a64:	lw	x15,4(x8)
   14a68:	addi	x12,x0,15
   14a6c:	andi	x15,x15,-4
   14a70:	sub	x14,x15,x9
   14a74:	blt	x12,x14,14ea4 <_malloc_r+0x508>
   14a78:	sw	x16,20(x18)
   14a7c:	sw	x16,16(x18)
   14a80:	bge	x14,x0,14c68 <_malloc_r+0x2cc>
   14a84:	addi	x14,x0,511
   14a88:	bltu	x14,x15,14e40 <_malloc_r+0x4a4>
   14a8c:	srli	x15,x15,0x3
   14a90:	addi	x12,x15,1
   14a94:	slli	x12,x12,0x3
   14a98:	lw	x14,4(x18)
   14a9c:	add	x12,x18,x12
   14aa0:	lw	x10,0(x12)
   14aa4:	srai	x15,x15,0x2
   14aa8:	addi	x11,x0,1
   14aac:	sll	x15,x11,x15
   14ab0:	or	x15,x15,x14
   14ab4:	addi	x14,x12,-8
   14ab8:	sw	x14,12(x8)
   14abc:	sw	x10,8(x8)
   14ac0:	sw	x15,4(x18)
   14ac4:	sw	x8,0(x12)
   14ac8:	sw	x8,12(x10)
   14acc:	srai	x14,x13,0x2
   14ad0:	addi	x12,x0,1
   14ad4:	sll	x12,x12,x14
   14ad8:	bltu	x15,x12,14c88 <_malloc_r+0x2ec>
   14adc:	and	x14,x12,x15
   14ae0:	bne	x14,x0,14b08 <_malloc_r+0x16c>
   14ae4:	slli	x12,x12,0x1
   14ae8:	andi	x13,x13,-4
   14aec:	and	x14,x12,x15
   14af0:	addi	x13,x13,4
   14af4:	bne	x14,x0,14b08 <_malloc_r+0x16c>
   14af8:	slli	x12,x12,0x1
   14afc:	and	x14,x12,x15
   14b00:	addi	x13,x13,4
   14b04:	beq	x14,x0,14af8 <_malloc_r+0x15c>
   14b08:	addi	x10,x0,15
   14b0c:	slli	x17,x13,0x3
   14b10:	add	x17,x17,x18
   14b14:	addi	x11,x17,0
   14b18:	addi	x6,x13,0
   14b1c:	lw	x8,12(x11)
   14b20:	bne	x11,x8,14b34 <_malloc_r+0x198>
   14b24:	jal	x0,14eb8 <_malloc_r+0x51c>
   14b28:	bge	x14,x0,14edc <_malloc_r+0x540>
   14b2c:	lw	x8,12(x8)
   14b30:	beq	x11,x8,14eb8 <_malloc_r+0x51c>
   14b34:	lw	x15,4(x8)
   14b38:	andi	x15,x15,-4
   14b3c:	sub	x14,x15,x9
   14b40:	bge	x10,x14,14b28 <_malloc_r+0x18c>
   14b44:	lw	x15,12(x8)
   14b48:	lw	x13,8(x8)
   14b4c:	ori	x12,x9,1
   14b50:	sw	x12,4(x8)
   14b54:	sw	x15,12(x13)
   14b58:	sw	x13,8(x15)
   14b5c:	add	x9,x8,x9
   14b60:	sw	x9,20(x18)
   14b64:	sw	x9,16(x18)
   14b68:	ori	x15,x14,1
   14b6c:	sw	x16,12(x9)
   14b70:	sw	x16,8(x9)
   14b74:	sw	x15,4(x9)
   14b78:	add	x9,x9,x14
   14b7c:	addi	x10,x19,0 # ffffe000 <_gp+0xfffe0a50>
   14b80:	sw	x14,0(x9)
   14b84:	jal	x1,15398 <__malloc_unlock>
   14b88:	addi	x10,x8,8
   14b8c:	jal	x0,14bf4 <_malloc_r+0x258>
   14b90:	addi	x9,x0,16
   14b94:	bltu	x9,x11,14c28 <_malloc_r+0x28c>
   14b98:	jal	x1,15394 <__malloc_lock>
   14b9c:	addi	x15,x0,6
   14ba0:	addi	x13,x0,2
   14ba4:	lui	x18,0x1d
   14ba8:	addi	x18,x18,-1624 # 1c9a8 <__malloc_av_>
   14bac:	slli	x15,x15,0x2
   14bb0:	add	x15,x18,x15
   14bb4:	lw	x8,4(x15)
   14bb8:	addi	x14,x15,-8
   14bbc:	beq	x8,x14,14ecc <_malloc_r+0x530>
   14bc0:	lw	x15,4(x8)
   14bc4:	lw	x13,12(x8)
   14bc8:	lw	x12,8(x8)
   14bcc:	andi	x15,x15,-4
   14bd0:	add	x15,x8,x15
   14bd4:	lw	x14,4(x15)
   14bd8:	sw	x13,12(x12)
   14bdc:	sw	x12,8(x13)
   14be0:	ori	x14,x14,1
   14be4:	addi	x10,x19,0
   14be8:	sw	x14,4(x15)
   14bec:	jal	x1,15398 <__malloc_unlock>
   14bf0:	addi	x10,x8,8
   14bf4:	lw	x1,44(x2)
   14bf8:	lw	x8,40(x2)
   14bfc:	lw	x9,36(x2)
   14c00:	lw	x18,32(x2)
   14c04:	lw	x19,28(x2)
   14c08:	lw	x20,24(x2)
   14c0c:	lw	x21,20(x2)
   14c10:	lw	x22,16(x2)
   14c14:	lw	x23,12(x2)
   14c18:	lw	x24,8(x2)
   14c1c:	lw	x25,4(x2)
   14c20:	addi	x2,x2,48
   14c24:	jalr	x0,x1,0
   14c28:	addi	x15,x0,12
   14c2c:	sw	x15,0(x19)
   14c30:	addi	x10,x0,0
   14c34:	jal	x0,14bf4 <_malloc_r+0x258>
   14c38:	addi	x14,x0,4
   14c3c:	bltu	x14,x15,14e1c <_malloc_r+0x480>
   14c40:	srli	x11,x9,0x6
   14c44:	addi	x10,x11,57
   14c48:	slli	x13,x10,0x1
   14c4c:	addi	x11,x11,56
   14c50:	jal	x0,14a08 <_malloc_r+0x6c>
   14c54:	addi	x13,x10,0
   14c58:	jal	x0,14a58 <_malloc_r+0xbc>
   14c5c:	lw	x13,12(x8)
   14c60:	lw	x12,8(x8)
   14c64:	jal	x0,14bd0 <_malloc_r+0x234>
   14c68:	add	x15,x8,x15
   14c6c:	lw	x14,4(x15)
   14c70:	addi	x10,x19,0
   14c74:	ori	x14,x14,1
   14c78:	sw	x14,4(x15)
   14c7c:	jal	x1,15398 <__malloc_unlock>
   14c80:	addi	x10,x8,8
   14c84:	jal	x0,14bf4 <_malloc_r+0x258>
   14c88:	lw	x8,8(x18)
   14c8c:	lw	x15,4(x8)
   14c90:	andi	x21,x15,-4
   14c94:	bltu	x21,x9,14ca4 <_malloc_r+0x308>
   14c98:	sub	x15,x21,x9
   14c9c:	addi	x14,x0,15
   14ca0:	blt	x14,x15,14df4 <_malloc_r+0x458>
   14ca4:	lw	x14,-1908(x3) # 1ce3c <__malloc_top_pad>
   14ca8:	lw	x13,-2032(x3) # 1cdc0 <__malloc_sbrk_base>
   14cac:	add	x14,x9,x14
   14cb0:	addi	x15,x0,-1
   14cb4:	add	x22,x8,x21
   14cb8:	addi	x20,x14,16
   14cbc:	beq	x13,x15,14cd4 <_malloc_r+0x338>
   14cc0:	lui	x20,0x1
   14cc4:	addi	x20,x20,15 # 100f <_ftext-0xeff1>
   14cc8:	add	x20,x14,x20
   14ccc:	lui	x14,0xfffff
   14cd0:	and	x20,x20,x14
   14cd4:	addi	x10,x20,0
   14cd8:	jal	x1,18ec8 <sbrk>
   14cdc:	addi	x15,x0,-1
   14ce0:	addi	x23,x10,0
   14ce4:	beq	x10,x15,14f34 <_malloc_r+0x598>
   14ce8:	bltu	x10,x22,14f30 <_malloc_r+0x594>
   14cec:	addi	x24,x3,-1868 # 1ce64 <__malloc_current_mallinfo>
   14cf0:	lw	x14,0(x24)
   14cf4:	add	x14,x20,x14
   14cf8:	sw	x14,0(x24)
   14cfc:	beq	x22,x23,15024 <_malloc_r+0x688>
   14d00:	lw	x13,-2032(x3) # 1cdc0 <__malloc_sbrk_base>
   14d04:	addi	x15,x0,-1
   14d08:	beq	x13,x15,1504c <_malloc_r+0x6b0>
   14d0c:	sub	x22,x23,x22
   14d10:	add	x14,x22,x14
   14d14:	sw	x14,0(x24)
   14d18:	andi	x14,x23,7
   14d1c:	lui	x15,0x1
   14d20:	beq	x14,x0,14d34 <_malloc_r+0x398>
   14d24:	sub	x23,x23,x14
   14d28:	addi	x15,x15,8 # 1008 <_ftext-0xeff8>
   14d2c:	addi	x23,x23,8
   14d30:	sub	x15,x15,x14
   14d34:	lui	x14,0x1
   14d38:	addi	x14,x14,-1 # fff <_ftext-0xf001>
   14d3c:	add	x20,x23,x20
   14d40:	and	x20,x20,x14
   14d44:	sub	x20,x15,x20
   14d48:	addi	x10,x20,0
   14d4c:	jal	x1,18ec8 <sbrk>
   14d50:	addi	x15,x0,-1
   14d54:	beq	x10,x15,15040 <_malloc_r+0x6a4>
   14d58:	sub	x15,x10,x23
   14d5c:	add	x15,x15,x20
   14d60:	ori	x15,x15,1
   14d64:	lw	x14,0(x24)
   14d68:	sw	x23,8(x18)
   14d6c:	sw	x15,4(x23)
   14d70:	add	x14,x20,x14
   14d74:	sw	x14,0(x24)
   14d78:	beq	x8,x18,14db0 <_malloc_r+0x414>
   14d7c:	addi	x12,x0,15
   14d80:	bgeu	x12,x21,14fd4 <_malloc_r+0x638>
   14d84:	lw	x13,4(x8)
   14d88:	addi	x15,x21,-12
   14d8c:	andi	x15,x15,-8
   14d90:	andi	x13,x13,1
   14d94:	or	x13,x13,x15
   14d98:	sw	x13,4(x8)
   14d9c:	addi	x11,x0,5
   14da0:	add	x13,x8,x15
   14da4:	sw	x11,4(x13)
   14da8:	sw	x11,8(x13)
   14dac:	bltu	x12,x15,15054 <_malloc_r+0x6b8>
   14db0:	lw	x13,-1912(x3) # 1ce38 <__malloc_max_sbrked_mem>
   14db4:	bgeu	x13,x14,14dbc <_malloc_r+0x420>
   14db8:	sw	x14,-1912(x3) # 1ce38 <__malloc_max_sbrked_mem>
   14dbc:	lw	x13,-1916(x3) # 1ce34 <__malloc_max_total_mem>
   14dc0:	lw	x8,8(x18)
   14dc4:	bgeu	x13,x14,14dcc <_malloc_r+0x430>
   14dc8:	sw	x14,-1916(x3) # 1ce34 <__malloc_max_total_mem>
   14dcc:	lw	x14,4(x8)
   14dd0:	andi	x14,x14,-4
   14dd4:	sub	x15,x14,x9
   14dd8:	bltu	x14,x9,14de4 <_malloc_r+0x448>
   14ddc:	addi	x14,x0,15
   14de0:	blt	x14,x15,14df4 <_malloc_r+0x458>
   14de4:	addi	x10,x19,0
   14de8:	jal	x1,15398 <__malloc_unlock>
   14dec:	addi	x10,x0,0
   14df0:	jal	x0,14bf4 <_malloc_r+0x258>
   14df4:	ori	x14,x9,1
   14df8:	sw	x14,4(x8)
   14dfc:	add	x9,x8,x9
   14e00:	sw	x9,8(x18)
   14e04:	ori	x15,x15,1
   14e08:	addi	x10,x19,0
   14e0c:	sw	x15,4(x9)
   14e10:	jal	x1,15398 <__malloc_unlock>
   14e14:	addi	x10,x8,8
   14e18:	jal	x0,14bf4 <_malloc_r+0x258>
   14e1c:	addi	x14,x0,20
   14e20:	bgeu	x14,x15,14f0c <_malloc_r+0x570>
   14e24:	addi	x14,x0,84
   14e28:	bltu	x14,x15,14f98 <_malloc_r+0x5fc>
   14e2c:	srli	x11,x9,0xc
   14e30:	addi	x10,x11,111
   14e34:	slli	x13,x10,0x1
   14e38:	addi	x11,x11,110
   14e3c:	jal	x0,14a08 <_malloc_r+0x6c>
   14e40:	srli	x14,x15,0x9
   14e44:	addi	x12,x0,4
   14e48:	bgeu	x12,x14,14f1c <_malloc_r+0x580>
   14e4c:	addi	x12,x0,20
   14e50:	bltu	x12,x14,15008 <_malloc_r+0x66c>
   14e54:	addi	x11,x14,92
   14e58:	addi	x12,x14,91
   14e5c:	slli	x11,x11,0x1
   14e60:	slli	x11,x11,0x2
   14e64:	add	x11,x18,x11
   14e68:	lw	x14,0(x11)
   14e6c:	addi	x11,x11,-8
   14e70:	beq	x11,x14,14fb4 <_malloc_r+0x618>
   14e74:	lw	x12,4(x14)
   14e78:	andi	x12,x12,-4
   14e7c:	bgeu	x15,x12,14e88 <_malloc_r+0x4ec>
   14e80:	lw	x14,8(x14)
   14e84:	bne	x11,x14,14e74 <_malloc_r+0x4d8>
   14e88:	lw	x11,12(x14)
   14e8c:	lw	x15,4(x18)
   14e90:	sw	x11,12(x8)
   14e94:	sw	x14,8(x8)
   14e98:	sw	x8,8(x11)
   14e9c:	sw	x8,12(x14)
   14ea0:	jal	x0,14acc <_malloc_r+0x130>
   14ea4:	ori	x15,x9,1
   14ea8:	sw	x15,4(x8)
   14eac:	jal	x0,14b5c <_malloc_r+0x1c0>
   14eb0:	lw	x15,4(x18)
   14eb4:	jal	x0,14acc <_malloc_r+0x130>
   14eb8:	addi	x6,x6,1
   14ebc:	andi	x15,x6,3
   14ec0:	addi	x11,x11,8
   14ec4:	bne	x15,x0,14b1c <_malloc_r+0x180>
   14ec8:	jal	x0,14f50 <_malloc_r+0x5b4>
   14ecc:	lw	x8,12(x15)
   14ed0:	addi	x13,x13,2
   14ed4:	beq	x15,x8,14a58 <_malloc_r+0xbc>
   14ed8:	jal	x0,14bc0 <_malloc_r+0x224>
   14edc:	add	x15,x8,x15
   14ee0:	lw	x14,4(x15)
   14ee4:	lw	x13,12(x8)
   14ee8:	lw	x12,8(x8)
   14eec:	ori	x14,x14,1
   14ef0:	sw	x14,4(x15)
   14ef4:	sw	x13,12(x12)
   14ef8:	addi	x10,x19,0
   14efc:	sw	x12,8(x13)
   14f00:	jal	x1,15398 <__malloc_unlock>
   14f04:	addi	x10,x8,8
   14f08:	jal	x0,14bf4 <_malloc_r+0x258>
   14f0c:	addi	x10,x15,92
   14f10:	addi	x11,x15,91
   14f14:	slli	x13,x10,0x1
   14f18:	jal	x0,14a08 <_malloc_r+0x6c>
   14f1c:	srli	x12,x15,0x6
   14f20:	addi	x11,x12,57
   14f24:	slli	x11,x11,0x1
   14f28:	addi	x12,x12,56
   14f2c:	jal	x0,14e60 <_malloc_r+0x4c4>
   14f30:	beq	x8,x18,14cec <_malloc_r+0x350>
   14f34:	lw	x8,8(x18)
   14f38:	lw	x14,4(x8)
   14f3c:	andi	x14,x14,-4
   14f40:	jal	x0,14dd4 <_malloc_r+0x438>
   14f44:	lw	x15,8(x17)
   14f48:	addi	x13,x13,-1
   14f4c:	bne	x17,x15,150a8 <_malloc_r+0x70c>
   14f50:	andi	x15,x13,3
   14f54:	addi	x17,x17,-8
   14f58:	bne	x15,x0,14f44 <_malloc_r+0x5a8>
   14f5c:	lw	x15,4(x18)
   14f60:	xori	x14,x12,-1
   14f64:	and	x15,x14,x15
   14f68:	sw	x15,4(x18)
   14f6c:	slli	x12,x12,0x1
   14f70:	bltu	x15,x12,14c88 <_malloc_r+0x2ec>
   14f74:	beq	x12,x0,14c88 <_malloc_r+0x2ec>
   14f78:	and	x14,x12,x15
   14f7c:	addi	x13,x6,0
   14f80:	bne	x14,x0,14b0c <_malloc_r+0x170>
   14f84:	slli	x12,x12,0x1
   14f88:	and	x14,x12,x15
   14f8c:	addi	x13,x13,4
   14f90:	beq	x14,x0,14f84 <_malloc_r+0x5e8>
   14f94:	jal	x0,14b0c <_malloc_r+0x170>
   14f98:	addi	x14,x0,340
   14f9c:	bltu	x14,x15,14fe0 <_malloc_r+0x644>
   14fa0:	srli	x11,x9,0xf
   14fa4:	addi	x10,x11,120
   14fa8:	slli	x13,x10,0x1
   14fac:	addi	x11,x11,119
   14fb0:	jal	x0,14a08 <_malloc_r+0x6c>
   14fb4:	lw	x15,4(x18)
   14fb8:	addi	x14,x0,1
   14fbc:	srai	x12,x12,0x2
   14fc0:	sll	x12,x14,x12
   14fc4:	or	x15,x12,x15
   14fc8:	sw	x15,4(x18)
   14fcc:	addi	x14,x11,0
   14fd0:	jal	x0,14e90 <_malloc_r+0x4f4>
   14fd4:	addi	x15,x0,1
   14fd8:	sw	x15,4(x23)
   14fdc:	jal	x0,14de4 <_malloc_r+0x448>
   14fe0:	addi	x14,x0,1364
   14fe4:	addi	x13,x0,254
   14fe8:	addi	x10,x0,127
   14fec:	addi	x11,x0,126
   14ff0:	bltu	x14,x15,14a08 <_malloc_r+0x6c>
   14ff4:	srli	x11,x9,0x12
   14ff8:	addi	x10,x11,125
   14ffc:	slli	x13,x10,0x1
   15000:	addi	x11,x11,124
   15004:	jal	x0,14a08 <_malloc_r+0x6c>
   15008:	addi	x12,x0,84
   1500c:	bltu	x12,x14,15068 <_malloc_r+0x6cc>
   15010:	srli	x12,x15,0xc
   15014:	addi	x11,x12,111
   15018:	slli	x11,x11,0x1
   1501c:	addi	x12,x12,110
   15020:	jal	x0,14e60 <_malloc_r+0x4c4>
   15024:	slli	x15,x22,0x14
   15028:	bne	x15,x0,14d00 <_malloc_r+0x364>
   1502c:	lw	x13,8(x18)
   15030:	add	x15,x21,x20
   15034:	ori	x15,x15,1
   15038:	sw	x15,4(x13)
   1503c:	jal	x0,14db0 <_malloc_r+0x414>
   15040:	addi	x15,x0,1
   15044:	addi	x20,x0,0
   15048:	jal	x0,14d64 <_malloc_r+0x3c8>
   1504c:	sw	x23,-2032(x3) # 1cdc0 <__malloc_sbrk_base>
   15050:	jal	x0,14d18 <_malloc_r+0x37c>
   15054:	addi	x11,x8,8
   15058:	addi	x10,x19,0
   1505c:	jal	x1,142f4 <_free_r>
   15060:	lw	x14,0(x24)
   15064:	jal	x0,14db0 <_malloc_r+0x414>
   15068:	addi	x12,x0,340
   1506c:	bltu	x12,x14,15084 <_malloc_r+0x6e8>
   15070:	srli	x12,x15,0xf
   15074:	addi	x11,x12,120
   15078:	slli	x11,x11,0x1
   1507c:	addi	x12,x12,119
   15080:	jal	x0,14e60 <_malloc_r+0x4c4>
   15084:	addi	x10,x0,1364
   15088:	addi	x11,x0,254
   1508c:	addi	x12,x0,126
   15090:	bltu	x10,x14,14e60 <_malloc_r+0x4c4>
   15094:	srli	x12,x15,0x12
   15098:	addi	x11,x12,125
   1509c:	slli	x11,x11,0x1
   150a0:	addi	x12,x12,124
   150a4:	jal	x0,14e60 <_malloc_r+0x4c4>
   150a8:	lw	x15,4(x18)
   150ac:	jal	x0,14f6c <_malloc_r+0x5d0>
   150b0:	srli	x13,x9,0x3
   150b4:	addi	x15,x13,1
   150b8:	slli	x15,x15,0x1
   150bc:	jal	x0,14ba4 <_malloc_r+0x208>

000150c0 <memchr>:
   150c0:	andi	x15,x10,3
   150c4:	andi	x13,x11,255
   150c8:	beq	x15,x0,1518c <memchr+0xcc>
   150cc:	addi	x15,x12,-1
   150d0:	beq	x12,x0,15130 <memchr+0x70>
   150d4:	lbu	x14,0(x10)
   150d8:	bne	x14,x13,150f0 <memchr+0x30>
   150dc:	jal	x0,15194 <memchr+0xd4>
   150e0:	beq	x15,x0,15130 <memchr+0x70>
   150e4:	lbu	x14,0(x10)
   150e8:	addi	x15,x15,-1
   150ec:	beq	x14,x13,15134 <memchr+0x74>
   150f0:	addi	x10,x10,1
   150f4:	andi	x14,x10,3
   150f8:	bne	x14,x0,150e0 <memchr+0x20>
   150fc:	addi	x12,x0,3
   15100:	bltu	x12,x15,15138 <memchr+0x78>
   15104:	beq	x15,x0,15130 <memchr+0x70>
   15108:	lbu	x14,0(x10)
   1510c:	beq	x14,x13,15134 <memchr+0x74>
   15110:	addi	x14,x10,1
   15114:	add	x15,x10,x15
   15118:	jal	x0,15128 <memchr+0x68>
   1511c:	addi	x14,x14,1
   15120:	lbu	x12,-1(x14)
   15124:	beq	x12,x13,15134 <memchr+0x74>
   15128:	addi	x10,x14,0
   1512c:	bne	x15,x14,1511c <memchr+0x5c>
   15130:	addi	x10,x0,0
   15134:	jalr	x0,x1,0
   15138:	andi	x11,x11,255
   1513c:	slli	x14,x11,0x8
   15140:	or	x14,x14,x11
   15144:	slli	x6,x14,0x10
   15148:	lui	x17,0xfeff0
   1514c:	lui	x16,0x80808
   15150:	or	x6,x14,x6
   15154:	addi	x17,x17,-257 # fefefeff <_gp+0xfefd294f>
   15158:	addi	x16,x16,128 # 80808080 <_gp+0x807eaad0>
   1515c:	addi	x11,x12,0
   15160:	lw	x14,0(x10)
   15164:	xor	x14,x6,x14
   15168:	add	x12,x14,x17
   1516c:	xori	x14,x14,-1
   15170:	and	x14,x12,x14
   15174:	and	x14,x14,x16
   15178:	bne	x14,x0,15108 <memchr+0x48>
   1517c:	addi	x15,x15,-4
   15180:	addi	x10,x10,4
   15184:	bltu	x11,x15,15160 <memchr+0xa0>
   15188:	jal	x0,15104 <memchr+0x44>
   1518c:	addi	x15,x12,0
   15190:	jal	x0,150fc <memchr+0x3c>
   15194:	jalr	x0,x1,0

00015198 <memcpy>:
   15198:	xor	x15,x11,x10
   1519c:	andi	x15,x15,3
   151a0:	add	x17,x10,x12
   151a4:	bne	x15,x0,15288 <memcpy+0xf0>
   151a8:	addi	x15,x0,3
   151ac:	bgeu	x15,x12,152a8 <memcpy+0x110>
   151b0:	andi	x15,x10,3
   151b4:	bne	x15,x0,15208 <memcpy+0x70>
   151b8:	andi	x16,x17,-4
   151bc:	addi	x15,x16,-32
   151c0:	addi	x14,x10,0
   151c4:	bltu	x10,x15,15230 <memcpy+0x98>
   151c8:	addi	x13,x11,0
   151cc:	addi	x15,x14,0
   151d0:	bgeu	x14,x16,15200 <memcpy+0x68>
   151d4:	lw	x12,0(x13)
   151d8:	addi	x15,x15,4
   151dc:	addi	x13,x13,4
   151e0:	sw	x12,-4(x15)
   151e4:	bltu	x15,x16,151d4 <memcpy+0x3c>
   151e8:	xori	x15,x14,-1
   151ec:	add	x16,x15,x16
   151f0:	andi	x16,x16,-4
   151f4:	addi	x16,x16,4
   151f8:	add	x14,x14,x16
   151fc:	add	x11,x11,x16
   15200:	bltu	x14,x17,15290 <memcpy+0xf8>
   15204:	jalr	x0,x1,0
   15208:	addi	x14,x10,0
   1520c:	lbu	x13,0(x11)
   15210:	addi	x14,x14,1
   15214:	andi	x15,x14,3
   15218:	sb	x13,-1(x14)
   1521c:	addi	x11,x11,1
   15220:	bne	x15,x0,1520c <memcpy+0x74>
   15224:	andi	x16,x17,-4
   15228:	addi	x15,x16,-32
   1522c:	bgeu	x14,x15,151c8 <memcpy+0x30>
   15230:	lw	x7,0(x11)
   15234:	lw	x5,4(x11)
   15238:	lw	x31,8(x11)
   1523c:	lw	x30,12(x11)
   15240:	lw	x29,16(x11)
   15244:	lw	x28,20(x11)
   15248:	lw	x6,24(x11)
   1524c:	lw	x12,28(x11)
   15250:	addi	x11,x11,36
   15254:	addi	x14,x14,36
   15258:	lw	x13,-4(x11)
   1525c:	sw	x7,-36(x14)
   15260:	sw	x5,-32(x14)
   15264:	sw	x31,-28(x14)
   15268:	sw	x30,-24(x14)
   1526c:	sw	x29,-20(x14)
   15270:	sw	x28,-16(x14)
   15274:	sw	x6,-12(x14)
   15278:	sw	x12,-8(x14)
   1527c:	sw	x13,-4(x14)
   15280:	bltu	x14,x15,15230 <memcpy+0x98>
   15284:	jal	x0,151c8 <memcpy+0x30>
   15288:	addi	x14,x10,0
   1528c:	bgeu	x10,x17,152b4 <memcpy+0x11c>
   15290:	lbu	x15,0(x11)
   15294:	addi	x14,x14,1
   15298:	addi	x11,x11,1
   1529c:	sb	x15,-1(x14)
   152a0:	bltu	x14,x17,15290 <memcpy+0xf8>
   152a4:	jalr	x0,x1,0
   152a8:	addi	x14,x10,0
   152ac:	bltu	x10,x17,15290 <memcpy+0xf8>
   152b0:	jal	x0,15204 <memcpy+0x6c>
   152b4:	jalr	x0,x1,0

000152b8 <memset>:
   152b8:	addi	x16,x0,15
   152bc:	addi	x14,x10,0
   152c0:	bgeu	x16,x12,152fc <memset+0x44>
   152c4:	andi	x15,x14,15
   152c8:	bne	x15,x0,15368 <memset+0xb0>
   152cc:	bne	x11,x0,15350 <memset+0x98>
   152d0:	andi	x13,x12,-16
   152d4:	andi	x12,x12,15
   152d8:	add	x13,x13,x14
   152dc:	sw	x11,0(x14)
   152e0:	sw	x11,4(x14)
   152e4:	sw	x11,8(x14)
   152e8:	sw	x11,12(x14)
   152ec:	addi	x14,x14,16
   152f0:	bltu	x14,x13,152dc <memset+0x24>
   152f4:	bne	x12,x0,152fc <memset+0x44>
   152f8:	jalr	x0,x1,0
   152fc:	sub	x13,x16,x12
   15300:	slli	x13,x13,0x2
   15304:	auipc	x5,0x0
   15308:	add	x13,x13,x5
   1530c:	jalr	x0,x13,12
   15310:	sb	x11,14(x14)
   15314:	sb	x11,13(x14)
   15318:	sb	x11,12(x14)
   1531c:	sb	x11,11(x14)
   15320:	sb	x11,10(x14)
   15324:	sb	x11,9(x14)
   15328:	sb	x11,8(x14)
   1532c:	sb	x11,7(x14)
   15330:	sb	x11,6(x14)
   15334:	sb	x11,5(x14)
   15338:	sb	x11,4(x14)
   1533c:	sb	x11,3(x14)
   15340:	sb	x11,2(x14)
   15344:	sb	x11,1(x14)
   15348:	sb	x11,0(x14)
   1534c:	jalr	x0,x1,0
   15350:	andi	x11,x11,255
   15354:	slli	x13,x11,0x8
   15358:	or	x11,x11,x13
   1535c:	slli	x13,x11,0x10
   15360:	or	x11,x11,x13
   15364:	jal	x0,152d0 <memset+0x18>
   15368:	slli	x13,x15,0x2
   1536c:	auipc	x5,0x0
   15370:	add	x13,x13,x5
   15374:	addi	x5,x1,0
   15378:	jalr	x1,x13,-96
   1537c:	addi	x1,x5,0 # 1536c <memset+0xb4>
   15380:	addi	x15,x15,-16
   15384:	sub	x14,x14,x15
   15388:	add	x12,x12,x15
   1538c:	bgeu	x16,x12,152fc <memset+0x44>
   15390:	jal	x0,152cc <memset+0x14>

00015394 <__malloc_lock>:
   15394:	jalr	x0,x1,0

00015398 <__malloc_unlock>:
   15398:	jalr	x0,x1,0

0001539c <_Balloc>:
   1539c:	lw	x15,76(x10)
   153a0:	addi	x2,x2,-16
   153a4:	sw	x8,8(x2)
   153a8:	sw	x9,4(x2)
   153ac:	sw	x1,12(x2)
   153b0:	sw	x18,0(x2)
   153b4:	addi	x8,x10,0
   153b8:	addi	x9,x11,0
   153bc:	beq	x15,x0,153f8 <_Balloc+0x5c>
   153c0:	slli	x10,x9,0x2
   153c4:	add	x15,x15,x10
   153c8:	lw	x10,0(x15)
   153cc:	beq	x10,x0,15418 <_Balloc+0x7c>
   153d0:	lw	x14,0(x10)
   153d4:	sw	x14,0(x15)
   153d8:	sw	x0,16(x10)
   153dc:	sw	x0,12(x10)
   153e0:	lw	x1,12(x2)
   153e4:	lw	x8,8(x2)
   153e8:	lw	x9,4(x2)
   153ec:	lw	x18,0(x2)
   153f0:	addi	x2,x2,16
   153f4:	jalr	x0,x1,0
   153f8:	addi	x12,x0,33
   153fc:	addi	x11,x0,4
   15400:	jal	x1,17934 <_calloc_r>
   15404:	sw	x10,76(x8)
   15408:	addi	x15,x10,0
   1540c:	bne	x10,x0,153c0 <_Balloc+0x24>
   15410:	addi	x10,x0,0
   15414:	jal	x0,153e0 <_Balloc+0x44>
   15418:	addi	x11,x0,1
   1541c:	sll	x18,x11,x9
   15420:	addi	x12,x18,5
   15424:	slli	x12,x12,0x2
   15428:	addi	x10,x8,0
   1542c:	jal	x1,17934 <_calloc_r>
   15430:	beq	x10,x0,15410 <_Balloc+0x74>
   15434:	sw	x9,4(x10)
   15438:	sw	x18,8(x10)
   1543c:	jal	x0,153d8 <_Balloc+0x3c>

00015440 <_Bfree>:
   15440:	beq	x11,x0,15460 <_Bfree+0x20>
   15444:	lw	x15,4(x11)
   15448:	lw	x14,76(x10)
   1544c:	slli	x15,x15,0x2
   15450:	add	x15,x14,x15
   15454:	lw	x14,0(x15)
   15458:	sw	x14,0(x11)
   1545c:	sw	x11,0(x15)
   15460:	jalr	x0,x1,0

00015464 <__multadd>:
   15464:	addi	x2,x2,-48
   15468:	lui	x16,0x10
   1546c:	sw	x8,40(x2)
   15470:	sw	x9,36(x2)
   15474:	sw	x18,32(x2)
   15478:	addi	x9,x11,0
   1547c:	lw	x8,16(x11)
   15480:	addi	x18,x10,0
   15484:	sw	x1,44(x2)
   15488:	sw	x19,28(x2)
   1548c:	addi	x11,x11,20
   15490:	addi	x10,x0,0
   15494:	addi	x16,x16,-1 # ffff <_ftext-0x1>
   15498:	lw	x15,0(x11)
   1549c:	addi	x11,x11,4
   154a0:	addi	x10,x10,1
   154a4:	and	x14,x15,x16
   154a8:	mul	x14,x14,x12
   154ac:	srli	x15,x15,0x10
   154b0:	mul	x15,x15,x12
   154b4:	add	x14,x14,x13
   154b8:	srli	x13,x14,0x10
   154bc:	and	x14,x14,x16
   154c0:	add	x13,x15,x13
   154c4:	slli	x15,x13,0x10
   154c8:	add	x14,x15,x14
   154cc:	sw	x14,-4(x11)
   154d0:	srli	x13,x13,0x10
   154d4:	blt	x10,x8,15498 <__multadd+0x34>
   154d8:	beq	x13,x0,154fc <__multadd+0x98>
   154dc:	lw	x15,8(x9)
   154e0:	bge	x8,x15,1551c <__multadd+0xb8>
   154e4:	addi	x15,x8,4
   154e8:	slli	x15,x15,0x2
   154ec:	add	x15,x9,x15
   154f0:	sw	x13,4(x15)
   154f4:	addi	x8,x8,1
   154f8:	sw	x8,16(x9)
   154fc:	lw	x1,44(x2)
   15500:	addi	x10,x9,0
   15504:	lw	x8,40(x2)
   15508:	lw	x9,36(x2)
   1550c:	lw	x18,32(x2)
   15510:	lw	x19,28(x2)
   15514:	addi	x2,x2,48
   15518:	jalr	x0,x1,0
   1551c:	lw	x11,4(x9)
   15520:	addi	x10,x18,0
   15524:	sw	x13,12(x2)
   15528:	addi	x11,x11,1
   1552c:	jal	x1,1539c <_Balloc>
   15530:	lw	x12,16(x9)
   15534:	addi	x19,x10,0
   15538:	addi	x11,x9,12
   1553c:	addi	x12,x12,2
   15540:	addi	x10,x10,12
   15544:	slli	x12,x12,0x2
   15548:	jal	x1,15198 <memcpy>
   1554c:	lw	x14,4(x9)
   15550:	lw	x15,76(x18)
   15554:	lw	x13,12(x2)
   15558:	slli	x14,x14,0x2
   1555c:	add	x15,x15,x14
   15560:	lw	x14,0(x15)
   15564:	sw	x14,0(x9)
   15568:	sw	x9,0(x15)
   1556c:	addi	x9,x19,0
   15570:	jal	x0,154e4 <__multadd+0x80>

00015574 <__s2b>:
   15574:	addi	x2,x2,-32
   15578:	addi	x15,x13,8
   1557c:	sw	x19,12(x2)
   15580:	addi	x19,x13,0
   15584:	addi	x13,x0,9
   15588:	div	x13,x15,x13
   1558c:	sw	x8,24(x2)
   15590:	sw	x9,20(x2)
   15594:	sw	x18,16(x2)
   15598:	sw	x20,8(x2)
   1559c:	sw	x1,28(x2)
   155a0:	sw	x21,4(x2)
   155a4:	addi	x15,x0,1
   155a8:	addi	x8,x11,0
   155ac:	addi	x18,x10,0
   155b0:	addi	x20,x12,0
   155b4:	addi	x9,x14,0
   155b8:	addi	x11,x0,0
   155bc:	bge	x15,x13,155cc <__s2b+0x58>
   155c0:	slli	x15,x15,0x1
   155c4:	addi	x11,x11,1
   155c8:	blt	x15,x13,155c0 <__s2b+0x4c>
   155cc:	addi	x10,x18,0
   155d0:	jal	x1,1539c <_Balloc>
   155d4:	addi	x15,x0,1
   155d8:	sw	x15,16(x10)
   155dc:	sw	x9,20(x10)
   155e0:	addi	x15,x0,9
   155e4:	bge	x15,x20,1566c <__s2b+0xf8>
   155e8:	add	x21,x8,x15
   155ec:	addi	x9,x21,0
   155f0:	add	x8,x8,x20
   155f4:	addi	x9,x9,1
   155f8:	lbu	x13,-1(x9)
   155fc:	addi	x11,x10,0
   15600:	addi	x12,x0,10
   15604:	addi	x13,x13,-48
   15608:	addi	x10,x18,0
   1560c:	jal	x1,15464 <__multadd>
   15610:	bne	x9,x8,155f4 <__s2b+0x80>
   15614:	add	x8,x21,x20
   15618:	addi	x8,x8,-8
   1561c:	bge	x20,x19,15648 <__s2b+0xd4>
   15620:	sub	x9,x19,x20
   15624:	add	x9,x8,x9
   15628:	addi	x8,x8,1
   1562c:	lbu	x13,-1(x8)
   15630:	addi	x11,x10,0
   15634:	addi	x12,x0,10
   15638:	addi	x13,x13,-48
   1563c:	addi	x10,x18,0
   15640:	jal	x1,15464 <__multadd>
   15644:	bne	x9,x8,15628 <__s2b+0xb4>
   15648:	lw	x1,28(x2)
   1564c:	lw	x8,24(x2)
   15650:	lw	x9,20(x2)
   15654:	lw	x18,16(x2)
   15658:	lw	x19,12(x2)
   1565c:	lw	x20,8(x2)
   15660:	lw	x21,4(x2)
   15664:	addi	x2,x2,32
   15668:	jalr	x0,x1,0
   1566c:	addi	x8,x8,10
   15670:	addi	x20,x15,0
   15674:	jal	x0,1561c <__s2b+0xa8>

00015678 <__hi0bits>:
   15678:	lui	x13,0xffff0
   1567c:	and	x13,x10,x13
   15680:	addi	x15,x10,0
   15684:	addi	x14,x0,0
   15688:	bne	x13,x0,15694 <__hi0bits+0x1c>
   1568c:	slli	x15,x10,0x10
   15690:	addi	x14,x0,16
   15694:	lui	x13,0xff000
   15698:	and	x13,x15,x13
   1569c:	bne	x13,x0,156a8 <__hi0bits+0x30>
   156a0:	addi	x14,x14,8
   156a4:	slli	x15,x15,0x8
   156a8:	lui	x13,0xf0000
   156ac:	and	x13,x15,x13
   156b0:	bne	x13,x0,156bc <__hi0bits+0x44>
   156b4:	addi	x14,x14,4
   156b8:	slli	x15,x15,0x4
   156bc:	lui	x13,0xc0000
   156c0:	and	x13,x15,x13
   156c4:	bne	x13,x0,156d0 <__hi0bits+0x58>
   156c8:	addi	x14,x14,2
   156cc:	slli	x15,x15,0x2
   156d0:	blt	x15,x0,156ec <__hi0bits+0x74>
   156d4:	slli	x13,x15,0x1
   156d8:	addi	x10,x0,32
   156dc:	blt	x13,x0,156e4 <__hi0bits+0x6c>
   156e0:	jalr	x0,x1,0
   156e4:	addi	x10,x14,1
   156e8:	jalr	x0,x1,0
   156ec:	addi	x10,x14,0
   156f0:	jalr	x0,x1,0

000156f4 <__lo0bits>:
   156f4:	lw	x15,0(x10)
   156f8:	addi	x13,x10,0
   156fc:	andi	x14,x15,7
   15700:	beq	x14,x0,15728 <__lo0bits+0x34>
   15704:	andi	x14,x15,1
   15708:	addi	x10,x0,0
   1570c:	bne	x14,x0,15790 <__lo0bits+0x9c>
   15710:	andi	x14,x15,2
   15714:	bne	x14,x0,15794 <__lo0bits+0xa0>
   15718:	srli	x15,x15,0x2
   1571c:	sw	x15,0(x13) # c0000000 <_gp+0xbffe2a50>
   15720:	addi	x10,x0,2
   15724:	jalr	x0,x1,0
   15728:	slli	x12,x15,0x10
   1572c:	srli	x12,x12,0x10
   15730:	addi	x14,x0,0
   15734:	bne	x12,x0,15740 <__lo0bits+0x4c>
   15738:	srli	x15,x15,0x10
   1573c:	addi	x14,x0,16
   15740:	andi	x12,x15,255
   15744:	bne	x12,x0,15750 <__lo0bits+0x5c>
   15748:	addi	x14,x14,8
   1574c:	srli	x15,x15,0x8
   15750:	andi	x12,x15,15
   15754:	bne	x12,x0,15760 <__lo0bits+0x6c>
   15758:	addi	x14,x14,4
   1575c:	srli	x15,x15,0x4
   15760:	andi	x12,x15,3
   15764:	bne	x12,x0,15770 <__lo0bits+0x7c>
   15768:	addi	x14,x14,2
   1576c:	srli	x15,x15,0x2
   15770:	andi	x12,x15,1
   15774:	bne	x12,x0,15788 <__lo0bits+0x94>
   15778:	srli	x15,x15,0x1
   1577c:	addi	x10,x0,32
   15780:	beq	x15,x0,15790 <__lo0bits+0x9c>
   15784:	addi	x14,x14,1
   15788:	sw	x15,0(x13)
   1578c:	addi	x10,x14,0
   15790:	jalr	x0,x1,0
   15794:	srli	x15,x15,0x1
   15798:	sw	x15,0(x13)
   1579c:	addi	x10,x0,1
   157a0:	jalr	x0,x1,0

000157a4 <__i2b>:
   157a4:	addi	x2,x2,-16
   157a8:	sw	x8,8(x2)
   157ac:	addi	x8,x11,0
   157b0:	addi	x11,x0,1
   157b4:	sw	x1,12(x2)
   157b8:	jal	x1,1539c <_Balloc>
   157bc:	lw	x1,12(x2)
   157c0:	addi	x14,x0,1
   157c4:	sw	x8,20(x10)
   157c8:	sw	x14,16(x10)
   157cc:	lw	x8,8(x2)
   157d0:	addi	x2,x2,16
   157d4:	jalr	x0,x1,0

000157d8 <__multiply>:
   157d8:	addi	x2,x2,-32
   157dc:	sw	x19,12(x2)
   157e0:	sw	x20,8(x2)
   157e4:	lw	x19,16(x11)
   157e8:	lw	x20,16(x12)
   157ec:	sw	x9,20(x2)
   157f0:	sw	x18,16(x2)
   157f4:	sw	x1,28(x2)
   157f8:	sw	x8,24(x2)
   157fc:	addi	x18,x11,0
   15800:	addi	x9,x12,0
   15804:	bge	x19,x20,1581c <__multiply+0x44>
   15808:	addi	x14,x19,0
   1580c:	addi	x18,x12,0
   15810:	addi	x19,x20,0
   15814:	addi	x9,x11,0
   15818:	addi	x20,x14,0
   1581c:	lw	x15,8(x18)
   15820:	lw	x11,4(x18)
   15824:	add	x8,x19,x20
   15828:	slt	x15,x15,x8
   1582c:	add	x11,x11,x15
   15830:	jal	x1,1539c <_Balloc>
   15834:	addi	x6,x10,20
   15838:	slli	x17,x8,0x2
   1583c:	add	x17,x6,x17
   15840:	addi	x15,x6,0
   15844:	bgeu	x6,x17,15854 <__multiply+0x7c>
   15848:	sw	x0,0(x15)
   1584c:	addi	x15,x15,4
   15850:	bltu	x15,x17,15848 <__multiply+0x70>
   15854:	addi	x12,x9,20
   15858:	slli	x28,x20,0x2
   1585c:	addi	x29,x18,20
   15860:	slli	x16,x19,0x2
   15864:	lui	x11,0x10
   15868:	add	x28,x12,x28
   1586c:	add	x16,x29,x16
   15870:	addi	x11,x11,-1 # ffff <_ftext-0x1>
   15874:	bgeu	x12,x28,1597c <__multiply+0x1a4>
   15878:	lw	x7,0(x12)
   1587c:	and	x9,x7,x11
   15880:	beq	x9,x0,158f4 <__multiply+0x11c>
   15884:	addi	x5,x6,0
   15888:	addi	x31,x29,0
   1588c:	addi	x15,x0,0
   15890:	jal	x0,15898 <__multiply+0xc0>
   15894:	addi	x5,x7,0
   15898:	lw	x13,0(x31)
   1589c:	lw	x30,0(x5)
   158a0:	addi	x7,x5,4
   158a4:	and	x14,x13,x11
   158a8:	mul	x14,x14,x9
   158ac:	srli	x13,x13,0x10
   158b0:	and	x18,x30,x11
   158b4:	srli	x30,x30,0x10
   158b8:	addi	x31,x31,4
   158bc:	mul	x13,x13,x9
   158c0:	add	x14,x14,x18
   158c4:	add	x15,x14,x15
   158c8:	srli	x14,x15,0x10
   158cc:	and	x15,x15,x11
   158d0:	add	x13,x13,x30
   158d4:	add	x14,x13,x14
   158d8:	slli	x13,x14,0x10
   158dc:	or	x15,x13,x15
   158e0:	sw	x15,-4(x7)
   158e4:	srli	x15,x14,0x10
   158e8:	bltu	x31,x16,15894 <__multiply+0xbc>
   158ec:	sw	x15,4(x5)
   158f0:	lw	x7,0(x12)
   158f4:	srli	x7,x7,0x10
   158f8:	beq	x7,x0,15970 <__multiply+0x198>
   158fc:	lw	x15,0(x6)
   15900:	addi	x5,x6,0
   15904:	addi	x31,x29,0
   15908:	addi	x30,x15,0
   1590c:	addi	x13,x0,0
   15910:	jal	x0,15918 <__multiply+0x140>
   15914:	addi	x5,x9,0
   15918:	lw	x14,0(x31)
   1591c:	srli	x30,x30,0x10
   15920:	and	x15,x15,x11
   15924:	and	x14,x14,x11
   15928:	mul	x14,x14,x7
   1592c:	addi	x9,x5,4
   15930:	addi	x31,x31,4
   15934:	add	x14,x14,x30
   15938:	add	x13,x14,x13
   1593c:	slli	x14,x13,0x10
   15940:	or	x15,x14,x15
   15944:	sw	x15,-4(x9)
   15948:	lhu	x14,-2(x31)
   1594c:	lw	x30,4(x5)
   15950:	srli	x13,x13,0x10
   15954:	mul	x14,x14,x7
   15958:	and	x15,x30,x11
   1595c:	add	x15,x14,x15
   15960:	add	x15,x15,x13
   15964:	srli	x13,x15,0x10
   15968:	bltu	x31,x16,15914 <__multiply+0x13c>
   1596c:	sw	x15,4(x5)
   15970:	addi	x12,x12,4
   15974:	addi	x6,x6,4
   15978:	bltu	x12,x28,15878 <__multiply+0xa0>
   1597c:	bge	x0,x8,159a4 <__multiply+0x1cc>
   15980:	lw	x15,-4(x17)
   15984:	addi	x17,x17,-4
   15988:	beq	x15,x0,15998 <__multiply+0x1c0>
   1598c:	jal	x0,159a4 <__multiply+0x1cc>
   15990:	lw	x15,0(x17)
   15994:	bne	x15,x0,159a4 <__multiply+0x1cc>
   15998:	addi	x8,x8,-1
   1599c:	addi	x17,x17,-4
   159a0:	bne	x8,x0,15990 <__multiply+0x1b8>
   159a4:	lw	x1,28(x2)
   159a8:	sw	x8,16(x10)
   159ac:	lw	x9,20(x2)
   159b0:	lw	x8,24(x2)
   159b4:	lw	x18,16(x2)
   159b8:	lw	x19,12(x2)
   159bc:	lw	x20,8(x2)
   159c0:	addi	x2,x2,32
   159c4:	jalr	x0,x1,0

000159c8 <__pow5mult>:
   159c8:	addi	x2,x2,-32
   159cc:	sw	x8,24(x2)
   159d0:	sw	x18,16(x2)
   159d4:	sw	x19,12(x2)
   159d8:	sw	x1,28(x2)
   159dc:	sw	x9,20(x2)
   159e0:	andi	x15,x12,3
   159e4:	addi	x8,x12,0
   159e8:	addi	x19,x10,0
   159ec:	addi	x18,x11,0
   159f0:	bne	x15,x0,15aac <__pow5mult+0xe4>
   159f4:	srai	x8,x8,0x2
   159f8:	beq	x8,x0,15a64 <__pow5mult+0x9c>
   159fc:	lw	x9,72(x19)
   15a00:	beq	x9,x0,15ad4 <__pow5mult+0x10c>
   15a04:	andi	x15,x8,1
   15a08:	bne	x15,x0,15a28 <__pow5mult+0x60>
   15a0c:	srai	x8,x8,0x1
   15a10:	beq	x8,x0,15a64 <__pow5mult+0x9c>
   15a14:	lw	x10,0(x9)
   15a18:	beq	x10,x0,15a84 <__pow5mult+0xbc>
   15a1c:	addi	x9,x10,0
   15a20:	andi	x15,x8,1
   15a24:	beq	x15,x0,15a0c <__pow5mult+0x44>
   15a28:	addi	x12,x9,0
   15a2c:	addi	x11,x18,0
   15a30:	addi	x10,x19,0
   15a34:	jal	x1,157d8 <__multiply>
   15a38:	beq	x18,x0,15aa4 <__pow5mult+0xdc>
   15a3c:	lw	x15,4(x18)
   15a40:	lw	x14,76(x19)
   15a44:	srai	x8,x8,0x1
   15a48:	slli	x15,x15,0x2
   15a4c:	add	x15,x14,x15
   15a50:	lw	x14,0(x15)
   15a54:	sw	x14,0(x18)
   15a58:	sw	x18,0(x15)
   15a5c:	addi	x18,x10,0
   15a60:	bne	x8,x0,15a14 <__pow5mult+0x4c>
   15a64:	lw	x1,28(x2)
   15a68:	addi	x10,x18,0
   15a6c:	lw	x8,24(x2)
   15a70:	lw	x9,20(x2)
   15a74:	lw	x18,16(x2)
   15a78:	lw	x19,12(x2)
   15a7c:	addi	x2,x2,32
   15a80:	jalr	x0,x1,0
   15a84:	addi	x12,x9,0
   15a88:	addi	x11,x9,0
   15a8c:	addi	x10,x19,0
   15a90:	jal	x1,157d8 <__multiply>
   15a94:	sw	x10,0(x9)
   15a98:	sw	x0,0(x10)
   15a9c:	addi	x9,x10,0
   15aa0:	jal	x0,15a20 <__pow5mult+0x58>
   15aa4:	addi	x18,x10,0
   15aa8:	jal	x0,15a0c <__pow5mult+0x44>
   15aac:	addi	x15,x15,-1
   15ab0:	lui	x14,0x1b
   15ab4:	addi	x14,x14,-552 # 1add8 <p05.2565>
   15ab8:	slli	x15,x15,0x2
   15abc:	add	x15,x14,x15
   15ac0:	lw	x12,0(x15)
   15ac4:	addi	x13,x0,0
   15ac8:	jal	x1,15464 <__multadd>
   15acc:	addi	x18,x10,0
   15ad0:	jal	x0,159f4 <__pow5mult+0x2c>
   15ad4:	addi	x11,x0,1
   15ad8:	addi	x10,x19,0
   15adc:	jal	x1,1539c <_Balloc>
   15ae0:	addi	x15,x0,625
   15ae4:	sw	x15,20(x10)
   15ae8:	addi	x15,x0,1
   15aec:	sw	x15,16(x10)
   15af0:	sw	x10,72(x19)
   15af4:	addi	x9,x10,0
   15af8:	sw	x0,0(x10)
   15afc:	jal	x0,15a04 <__pow5mult+0x3c>

00015b00 <__lshift>:
   15b00:	addi	x2,x2,-32
   15b04:	sw	x20,8(x2)
   15b08:	lw	x20,16(x11)
   15b0c:	sw	x8,24(x2)
   15b10:	lw	x15,8(x11)
   15b14:	srai	x8,x12,0x5
   15b18:	add	x20,x8,x20
   15b1c:	sw	x9,20(x2)
   15b20:	sw	x18,16(x2)
   15b24:	sw	x19,12(x2)
   15b28:	sw	x21,4(x2)
   15b2c:	sw	x1,28(x2)
   15b30:	addi	x9,x20,1
   15b34:	addi	x19,x11,0
   15b38:	addi	x18,x12,0
   15b3c:	addi	x21,x10,0
   15b40:	lw	x11,4(x11)
   15b44:	bge	x15,x9,15b54 <__lshift+0x54>
   15b48:	slli	x15,x15,0x1
   15b4c:	addi	x11,x11,1
   15b50:	blt	x15,x9,15b48 <__lshift+0x48>
   15b54:	addi	x10,x21,0
   15b58:	jal	x1,1539c <_Balloc>
   15b5c:	addi	x15,x10,20
   15b60:	bge	x0,x8,15c48 <__lshift+0x148>
   15b64:	slli	x14,x8,0x2
   15b68:	add	x14,x15,x14
   15b6c:	addi	x15,x15,4
   15b70:	sw	x0,-4(x15)
   15b74:	bne	x15,x14,15b6c <__lshift+0x6c>
   15b78:	lw	x17,16(x19)
   15b7c:	addi	x15,x19,20
   15b80:	andi	x12,x18,31
   15b84:	slli	x17,x17,0x2
   15b88:	add	x17,x15,x17
   15b8c:	beq	x12,x0,15c1c <__lshift+0x11c>
   15b90:	addi	x6,x0,32
   15b94:	sub	x6,x6,x12
   15b98:	addi	x13,x0,0
   15b9c:	jal	x0,15ba4 <__lshift+0xa4>
   15ba0:	addi	x14,x16,0
   15ba4:	lw	x11,0(x15)
   15ba8:	addi	x16,x14,4
   15bac:	addi	x15,x15,4
   15bb0:	sll	x11,x11,x12
   15bb4:	or	x13,x11,x13
   15bb8:	sw	x13,-4(x16)
   15bbc:	lw	x13,-4(x15)
   15bc0:	srl	x13,x13,x6
   15bc4:	bltu	x15,x17,15ba0 <__lshift+0xa0>
   15bc8:	sw	x13,4(x14)
   15bcc:	beq	x13,x0,15bd4 <__lshift+0xd4>
   15bd0:	addi	x9,x20,2
   15bd4:	lw	x15,4(x19)
   15bd8:	lw	x14,76(x21)
   15bdc:	addi	x9,x9,-1
   15be0:	slli	x15,x15,0x2
   15be4:	add	x15,x14,x15
   15be8:	lw	x14,0(x15)
   15bec:	lw	x1,28(x2)
   15bf0:	sw	x9,16(x10)
   15bf4:	sw	x14,0(x19)
   15bf8:	sw	x19,0(x15)
   15bfc:	lw	x8,24(x2)
   15c00:	lw	x9,20(x2)
   15c04:	lw	x18,16(x2)
   15c08:	lw	x19,12(x2)
   15c0c:	lw	x20,8(x2)
   15c10:	lw	x21,4(x2)
   15c14:	addi	x2,x2,32
   15c18:	jalr	x0,x1,0
   15c1c:	addi	x15,x15,4
   15c20:	lw	x13,-4(x15)
   15c24:	addi	x14,x14,4
   15c28:	sw	x13,-4(x14)
   15c2c:	bgeu	x15,x17,15bd4 <__lshift+0xd4>
   15c30:	addi	x15,x15,4
   15c34:	lw	x13,-4(x15)
   15c38:	addi	x14,x14,4
   15c3c:	sw	x13,-4(x14)
   15c40:	bltu	x15,x17,15c1c <__lshift+0x11c>
   15c44:	jal	x0,15bd4 <__lshift+0xd4>
   15c48:	addi	x14,x15,0
   15c4c:	jal	x0,15b78 <__lshift+0x78>

00015c50 <__mcmp>:
   15c50:	lw	x15,16(x10)
   15c54:	lw	x14,16(x11)
   15c58:	sub	x15,x15,x14
   15c5c:	bne	x15,x0,15ca0 <__mcmp+0x50>
   15c60:	slli	x14,x14,0x2
   15c64:	addi	x10,x10,20
   15c68:	addi	x11,x11,20
   15c6c:	add	x15,x10,x14
   15c70:	add	x11,x11,x14
   15c74:	jal	x0,15c7c <__mcmp+0x2c>
   15c78:	bgeu	x10,x15,15ca8 <__mcmp+0x58>
   15c7c:	addi	x15,x15,-4
   15c80:	addi	x11,x11,-4
   15c84:	lw	x14,0(x15)
   15c88:	lw	x13,0(x11)
   15c8c:	beq	x14,x13,15c78 <__mcmp+0x28>
   15c90:	sltu	x15,x14,x13
   15c94:	sub	x15,x0,x15
   15c98:	ori	x10,x15,1
   15c9c:	jalr	x0,x1,0
   15ca0:	addi	x10,x15,0
   15ca4:	jalr	x0,x1,0
   15ca8:	addi	x10,x0,0
   15cac:	jalr	x0,x1,0

00015cb0 <__mdiff>:
   15cb0:	lw	x15,16(x11)
   15cb4:	lw	x14,16(x12)
   15cb8:	addi	x2,x2,-32
   15cbc:	sw	x18,16(x2)
   15cc0:	sw	x19,12(x2)
   15cc4:	sw	x1,28(x2)
   15cc8:	sw	x8,24(x2)
   15ccc:	sw	x9,20(x2)
   15cd0:	sw	x20,8(x2)
   15cd4:	sub	x15,x15,x14
   15cd8:	addi	x18,x11,0
   15cdc:	addi	x19,x12,0
   15ce0:	bne	x15,x0,15d30 <__mdiff+0x80>
   15ce4:	slli	x14,x14,0x2
   15ce8:	addi	x16,x11,20
   15cec:	addi	x8,x12,20
   15cf0:	add	x15,x16,x14
   15cf4:	add	x14,x8,x14
   15cf8:	jal	x0,15d00 <__mdiff+0x50>
   15cfc:	bgeu	x16,x15,15e60 <__mdiff+0x1b0>
   15d00:	addi	x15,x15,-4
   15d04:	addi	x14,x14,-4
   15d08:	lw	x11,0(x15)
   15d0c:	lw	x13,0(x14)
   15d10:	beq	x11,x13,15cfc <__mdiff+0x4c>
   15d14:	bgeu	x11,x13,15e78 <__mdiff+0x1c8>
   15d18:	addi	x15,x18,0
   15d1c:	addi	x9,x16,0
   15d20:	addi	x18,x19,0
   15d24:	addi	x20,x0,1
   15d28:	addi	x19,x15,0
   15d2c:	jal	x0,15d40 <__mdiff+0x90>
   15d30:	blt	x15,x0,15e88 <__mdiff+0x1d8>
   15d34:	addi	x9,x12,20
   15d38:	addi	x8,x11,20
   15d3c:	addi	x20,x0,0
   15d40:	lw	x11,4(x18)
   15d44:	jal	x1,1539c <_Balloc>
   15d48:	lw	x28,16(x18)
   15d4c:	lw	x30,16(x19)
   15d50:	lui	x6,0x10
   15d54:	slli	x29,x28,0x2
   15d58:	slli	x30,x30,0x2
   15d5c:	sw	x20,12(x10)
   15d60:	add	x29,x8,x29
   15d64:	add	x30,x9,x30
   15d68:	addi	x16,x10,20
   15d6c:	addi	x13,x0,0
   15d70:	addi	x6,x6,-1 # ffff <_ftext-0x1>
   15d74:	lw	x11,0(x8)
   15d78:	lw	x17,0(x9)
   15d7c:	addi	x16,x16,4
   15d80:	and	x12,x11,x6
   15d84:	add	x13,x12,x13
   15d88:	and	x14,x17,x6
   15d8c:	sub	x14,x13,x14
   15d90:	srli	x11,x11,0x10
   15d94:	srli	x13,x17,0x10
   15d98:	sub	x11,x11,x13
   15d9c:	srai	x13,x14,0x10
   15da0:	add	x13,x11,x13
   15da4:	slli	x15,x13,0x10
   15da8:	and	x14,x14,x6
   15dac:	or	x15,x15,x14
   15db0:	addi	x9,x9,4
   15db4:	sw	x15,-4(x16)
   15db8:	addi	x8,x8,4
   15dbc:	srai	x13,x13,0x10
   15dc0:	bltu	x9,x30,15d74 <__mdiff+0xc4>
   15dc4:	bgeu	x8,x29,15e24 <__mdiff+0x174>
   15dc8:	lui	x30,0x10
   15dcc:	addi	x6,x16,0
   15dd0:	addi	x17,x8,0
   15dd4:	addi	x30,x30,-1 # ffff <_ftext-0x1>
   15dd8:	lw	x11,0(x17)
   15ddc:	addi	x6,x6,4
   15de0:	addi	x17,x17,4
   15de4:	and	x12,x11,x30
   15de8:	add	x13,x12,x13
   15dec:	srai	x14,x13,0x10
   15df0:	srli	x11,x11,0x10
   15df4:	add	x14,x11,x14
   15df8:	and	x13,x13,x30
   15dfc:	slli	x15,x14,0x10
   15e00:	or	x15,x15,x13
   15e04:	sw	x15,-4(x6)
   15e08:	srai	x13,x14,0x10
   15e0c:	bltu	x17,x29,15dd8 <__mdiff+0x128>
   15e10:	xori	x8,x8,-1
   15e14:	add	x29,x8,x29
   15e18:	andi	x29,x29,-4
   15e1c:	addi	x29,x29,4
   15e20:	add	x16,x16,x29
   15e24:	addi	x16,x16,-4
   15e28:	bne	x15,x0,15e3c <__mdiff+0x18c>
   15e2c:	addi	x16,x16,-4
   15e30:	lw	x15,0(x16)
   15e34:	addi	x28,x28,-1
   15e38:	beq	x15,x0,15e2c <__mdiff+0x17c>
   15e3c:	sw	x28,16(x10)
   15e40:	lw	x1,28(x2)
   15e44:	lw	x8,24(x2)
   15e48:	lw	x9,20(x2)
   15e4c:	lw	x18,16(x2)
   15e50:	lw	x19,12(x2)
   15e54:	lw	x20,8(x2)
   15e58:	addi	x2,x2,32
   15e5c:	jalr	x0,x1,0
   15e60:	addi	x11,x0,0
   15e64:	jal	x1,1539c <_Balloc>
   15e68:	addi	x15,x0,1
   15e6c:	sw	x15,16(x10)
   15e70:	sw	x0,20(x10)
   15e74:	jal	x0,15e40 <__mdiff+0x190>
   15e78:	addi	x9,x8,0
   15e7c:	addi	x20,x0,0
   15e80:	addi	x8,x16,0
   15e84:	jal	x0,15d40 <__mdiff+0x90>
   15e88:	addi	x15,x18,0
   15e8c:	addi	x9,x18,20
   15e90:	addi	x8,x19,20
   15e94:	addi	x18,x19,0
   15e98:	addi	x20,x0,1
   15e9c:	addi	x19,x15,0
   15ea0:	jal	x0,15d40 <__mdiff+0x90>

00015ea4 <__ulp>:
   15ea4:	lui	x15,0x7ff00
   15ea8:	and	x11,x11,x15
   15eac:	lui	x15,0xfcc00
   15eb0:	add	x11,x11,x15
   15eb4:	bge	x0,x11,15ecc <__ulp+0x28>
   15eb8:	addi	x14,x0,0
   15ebc:	addi	x15,x11,0
   15ec0:	addi	x10,x14,0
   15ec4:	addi	x11,x15,0 # fcc00000 <_gp+0xfcbe2a50>
   15ec8:	jalr	x0,x1,0
   15ecc:	sub	x11,x0,x11
   15ed0:	srai	x11,x11,0x14
   15ed4:	addi	x15,x0,19
   15ed8:	bge	x15,x11,15f08 <__ulp+0x64>
   15edc:	addi	x11,x11,-20
   15ee0:	addi	x12,x0,30
   15ee4:	addi	x15,x0,0
   15ee8:	addi	x13,x0,1
   15eec:	blt	x12,x11,15ef8 <__ulp+0x54>
   15ef0:	xori	x11,x11,-1
   15ef4:	sll	x13,x13,x11
   15ef8:	addi	x14,x13,0
   15efc:	addi	x10,x14,0
   15f00:	addi	x11,x15,0
   15f04:	jalr	x0,x1,0
   15f08:	lui	x13,0x80
   15f0c:	addi	x14,x0,0
   15f10:	sra	x15,x13,x11
   15f14:	addi	x10,x14,0
   15f18:	addi	x11,x15,0
   15f1c:	jalr	x0,x1,0

00015f20 <__b2d>:
   15f20:	addi	x2,x2,-32
   15f24:	sw	x8,24(x2)
   15f28:	lw	x8,16(x10)
   15f2c:	sw	x9,20(x2)
   15f30:	addi	x9,x10,20
   15f34:	slli	x8,x8,0x2
   15f38:	add	x8,x9,x8
   15f3c:	sw	x18,16(x2)
   15f40:	lw	x18,-4(x8)
   15f44:	sw	x19,12(x2)
   15f48:	sw	x20,8(x2)
   15f4c:	addi	x10,x18,0
   15f50:	addi	x20,x11,0
   15f54:	sw	x1,28(x2)
   15f58:	jal	x1,15678 <__hi0bits>
   15f5c:	addi	x15,x0,32
   15f60:	sub	x14,x15,x10
   15f64:	sw	x14,0(x20)
   15f68:	addi	x14,x0,10
   15f6c:	addi	x19,x8,-4
   15f70:	blt	x14,x10,15fcc <__b2d+0xac>
   15f74:	addi	x15,x0,11
   15f78:	sub	x15,x15,x10
   15f7c:	lui	x14,0x3ff00
   15f80:	srl	x11,x18,x15
   15f84:	or	x13,x11,x14
   15f88:	addi	x14,x0,0
   15f8c:	bgeu	x9,x19,15f98 <__b2d+0x78>
   15f90:	lw	x14,-8(x8)
   15f94:	srl	x14,x14,x15
   15f98:	addi	x15,x10,21
   15f9c:	sll	x10,x18,x15
   15fa0:	or	x12,x10,x14
   15fa4:	lw	x1,28(x2)
   15fa8:	addi	x10,x12,0
   15fac:	addi	x11,x13,0 # 80000 <_gp+0x62a50>
   15fb0:	lw	x8,24(x2)
   15fb4:	lw	x9,20(x2)
   15fb8:	lw	x18,16(x2)
   15fbc:	lw	x19,12(x2)
   15fc0:	lw	x20,8(x2)
   15fc4:	addi	x2,x2,32
   15fc8:	jalr	x0,x1,0
   15fcc:	bgeu	x9,x19,16014 <__b2d+0xf4>
   15fd0:	addi	x14,x10,-11
   15fd4:	lw	x10,-8(x8)
   15fd8:	beq	x14,x0,1601c <__b2d+0xfc>
   15fdc:	lui	x13,0x3ff00
   15fe0:	sub	x15,x15,x14
   15fe4:	sll	x18,x18,x14
   15fe8:	or	x18,x18,x13
   15fec:	srl	x16,x10,x15
   15ff0:	addi	x11,x8,-8
   15ff4:	or	x13,x18,x16
   15ff8:	bgeu	x9,x11,16044 <__b2d+0x124>
   15ffc:	lw	x11,-12(x8)
   16000:	sll	x10,x10,x14
   16004:	srl	x15,x11,x15
   16008:	or	x10,x15,x10
   1600c:	addi	x12,x10,0
   16010:	jal	x0,15fa4 <__b2d+0x84>
   16014:	addi	x10,x10,-11
   16018:	bne	x10,x0,1602c <__b2d+0x10c>
   1601c:	lui	x15,0x3ff00
   16020:	or	x13,x18,x15
   16024:	addi	x12,x10,0
   16028:	jal	x0,15fa4 <__b2d+0x84>
   1602c:	sll	x10,x18,x10
   16030:	lui	x15,0x3ff00
   16034:	or	x13,x10,x15
   16038:	addi	x10,x0,0
   1603c:	addi	x12,x10,0
   16040:	jal	x0,15fa4 <__b2d+0x84>
   16044:	sll	x10,x10,x14
   16048:	addi	x12,x10,0
   1604c:	jal	x0,15fa4 <__b2d+0x84>

00016050 <__d2b>:
   16050:	addi	x2,x2,-48
   16054:	addi	x11,x0,1
   16058:	sw	x8,40(x2)
   1605c:	sw	x9,36(x2)
   16060:	addi	x8,x13,0 # 3ff00000 <_gp+0x3fee2a50>
   16064:	sw	x18,32(x2)
   16068:	sw	x19,28(x2)
   1606c:	sw	x20,24(x2)
   16070:	sw	x21,20(x2)
   16074:	addi	x19,x15,0 # 3ff00000 <_gp+0x3fee2a50>
   16078:	sw	x1,44(x2)
   1607c:	addi	x20,x14,0 # 3ff00000 <_gp+0x3fee2a50>
   16080:	addi	x21,x12,0
   16084:	jal	x1,1539c <_Balloc>
   16088:	slli	x9,x8,0x1
   1608c:	lui	x15,0x100
   16090:	addi	x13,x15,-1 # fffff <_gp+0xe2a4f>
   16094:	srli	x9,x9,0x15
   16098:	addi	x18,x10,0
   1609c:	and	x8,x8,x13
   160a0:	beq	x9,x0,160a8 <__d2b+0x58>
   160a4:	or	x8,x8,x15
   160a8:	sw	x8,12(x2)
   160ac:	beq	x21,x0,16134 <__d2b+0xe4>
   160b0:	addi	x10,x2,8
   160b4:	sw	x21,8(x2)
   160b8:	jal	x1,156f4 <__lo0bits>
   160bc:	addi	x15,x10,0
   160c0:	lw	x14,12(x2)
   160c4:	bne	x10,x0,16170 <__d2b+0x120>
   160c8:	lw	x13,8(x2)
   160cc:	sw	x13,20(x18)
   160d0:	sltiu	x8,x14,1
   160d4:	addi	x13,x0,2
   160d8:	sub	x8,x13,x8
   160dc:	sw	x14,24(x18)
   160e0:	sw	x8,16(x18)
   160e4:	bne	x9,x0,16154 <__d2b+0x104>
   160e8:	slli	x14,x8,0x2
   160ec:	add	x14,x18,x14
   160f0:	lw	x10,16(x14)
   160f4:	addi	x15,x15,-1074
   160f8:	sw	x15,0(x20)
   160fc:	jal	x1,15678 <__hi0bits>
   16100:	slli	x8,x8,0x5
   16104:	sub	x10,x8,x10
   16108:	sw	x10,0(x19)
   1610c:	lw	x1,44(x2)
   16110:	addi	x10,x18,0
   16114:	lw	x8,40(x2)
   16118:	lw	x9,36(x2)
   1611c:	lw	x18,32(x2)
   16120:	lw	x19,28(x2)
   16124:	lw	x20,24(x2)
   16128:	lw	x21,20(x2)
   1612c:	addi	x2,x2,48
   16130:	jalr	x0,x1,0
   16134:	addi	x10,x2,12
   16138:	jal	x1,156f4 <__lo0bits>
   1613c:	lw	x15,12(x2)
   16140:	addi	x8,x0,1
   16144:	sw	x8,16(x18)
   16148:	sw	x15,20(x18)
   1614c:	addi	x15,x10,32
   16150:	beq	x9,x0,160e8 <__d2b+0x98>
   16154:	addi	x9,x9,-1075
   16158:	add	x9,x9,x15
   1615c:	addi	x14,x0,53
   16160:	sw	x9,0(x20)
   16164:	sub	x15,x14,x15
   16168:	sw	x15,0(x19)
   1616c:	jal	x0,1610c <__d2b+0xbc>
   16170:	addi	x13,x0,32
   16174:	lw	x12,8(x2)
   16178:	sub	x13,x13,x10
   1617c:	sll	x13,x14,x13
   16180:	or	x13,x13,x12
   16184:	srl	x14,x14,x10
   16188:	sw	x13,20(x18)
   1618c:	sw	x14,12(x2)
   16190:	jal	x0,160d0 <__d2b+0x80>

00016194 <__ratio>:
   16194:	addi	x2,x2,-48
   16198:	sw	x18,32(x2)
   1619c:	addi	x18,x11,0
   161a0:	addi	x11,x2,8
   161a4:	sw	x1,44(x2)
   161a8:	sw	x8,40(x2)
   161ac:	sw	x9,36(x2)
   161b0:	sw	x19,28(x2)
   161b4:	addi	x19,x10,0
   161b8:	jal	x1,15f20 <__b2d>
   161bc:	addi	x8,x10,0
   161c0:	addi	x9,x11,0
   161c4:	addi	x10,x18,0
   161c8:	addi	x11,x2,12
   161cc:	jal	x1,15f20 <__b2d>
   161d0:	lw	x14,16(x18)
   161d4:	lw	x15,16(x19)
   161d8:	addi	x13,x11,0
   161dc:	lw	x11,12(x2)
   161e0:	sub	x15,x15,x14
   161e4:	slli	x14,x15,0x5
   161e8:	lw	x15,8(x2)
   161ec:	addi	x12,x10,0
   161f0:	sub	x15,x15,x11
   161f4:	add	x15,x14,x15
   161f8:	bge	x0,x15,16230 <__ratio+0x9c>
   161fc:	slli	x15,x15,0x14
   16200:	add	x11,x15,x9
   16204:	addi	x9,x11,0
   16208:	addi	x10,x8,0
   1620c:	addi	x11,x9,0
   16210:	jal	x1,198f8 <__divdf3>
   16214:	lw	x1,44(x2)
   16218:	lw	x8,40(x2)
   1621c:	lw	x9,36(x2)
   16220:	lw	x18,32(x2)
   16224:	lw	x19,28(x2)
   16228:	addi	x2,x2,48
   1622c:	jalr	x0,x1,0
   16230:	slli	x15,x15,0x14
   16234:	sub	x17,x13,x15
   16238:	addi	x13,x17,0
   1623c:	jal	x0,16208 <__ratio+0x74>

00016240 <_mprec_log10>:
   16240:	addi	x2,x2,-16
   16244:	sw	x8,8(x2)
   16248:	sw	x1,12(x2)
   1624c:	sw	x18,4(x2)
   16250:	sw	x19,0(x2)
   16254:	addi	x15,x0,23
   16258:	addi	x8,x10,0
   1625c:	bge	x15,x10,162a4 <_mprec_log10+0x64>
   16260:	lui	x15,0x1d
   16264:	lw	x10,-528(x15) # 1cdf0 <__wctomb+0x28>
   16268:	lw	x11,-524(x15)
   1626c:	lui	x15,0x1d
   16270:	lw	x18,-520(x15) # 1cdf8 <__wctomb+0x30>
   16274:	lw	x19,-516(x15)
   16278:	addi	x8,x8,-1
   1627c:	addi	x12,x18,0
   16280:	addi	x13,x19,0
   16284:	jal	x1,19694 <__muldf3>
   16288:	bne	x8,x0,16278 <_mprec_log10+0x38>
   1628c:	lw	x1,12(x2)
   16290:	lw	x8,8(x2)
   16294:	lw	x18,4(x2)
   16298:	lw	x19,0(x2)
   1629c:	addi	x2,x2,16
   162a0:	jalr	x0,x1,0
   162a4:	lui	x15,0x1b
   162a8:	slli	x8,x10,0x3
   162ac:	addi	x15,x15,-552 # 1add8 <p05.2565>
   162b0:	add	x8,x15,x8
   162b4:	lw	x10,16(x8)
   162b8:	lw	x11,20(x8)
   162bc:	jal	x0,1628c <_mprec_log10+0x4c>

000162c0 <__copybits>:
   162c0:	lw	x14,16(x12)
   162c4:	addi	x11,x11,-1
   162c8:	srai	x16,x11,0x5
   162cc:	addi	x16,x16,1
   162d0:	addi	x15,x12,20
   162d4:	slli	x14,x14,0x2
   162d8:	slli	x16,x16,0x2
   162dc:	add	x13,x15,x14
   162e0:	add	x16,x10,x16
   162e4:	bgeu	x15,x13,16314 <__copybits+0x54>
   162e8:	addi	x14,x10,0
   162ec:	addi	x15,x15,4
   162f0:	lw	x11,-4(x15)
   162f4:	addi	x14,x14,4
   162f8:	sw	x11,-4(x14)
   162fc:	bltu	x15,x13,162ec <__copybits+0x2c>
   16300:	sub	x15,x13,x12
   16304:	addi	x15,x15,-21
   16308:	andi	x15,x15,-4
   1630c:	addi	x15,x15,4
   16310:	add	x10,x10,x15
   16314:	bgeu	x10,x16,16324 <__copybits+0x64>
   16318:	addi	x10,x10,4
   1631c:	sw	x0,-4(x10)
   16320:	bltu	x10,x16,16318 <__copybits+0x58>
   16324:	jalr	x0,x1,0

00016328 <__any_on>:
   16328:	lw	x15,16(x10)
   1632c:	srai	x14,x11,0x5
   16330:	addi	x13,x10,20
   16334:	bge	x15,x14,16368 <__any_on+0x40>
   16338:	slli	x15,x15,0x2
   1633c:	add	x15,x13,x15
   16340:	bgeu	x13,x15,163a4 <__any_on+0x7c>
   16344:	lw	x10,-4(x15)
   16348:	addi	x15,x15,-4
   1634c:	bne	x10,x0,16360 <__any_on+0x38>
   16350:	bgeu	x13,x15,163a0 <__any_on+0x78>
   16354:	addi	x15,x15,-4
   16358:	lw	x14,0(x15)
   1635c:	beq	x14,x0,16350 <__any_on+0x28>
   16360:	addi	x10,x0,1
   16364:	jalr	x0,x1,0
   16368:	bge	x14,x15,16394 <__any_on+0x6c>
   1636c:	slli	x15,x14,0x2
   16370:	andi	x11,x11,31
   16374:	add	x15,x13,x15
   16378:	beq	x11,x0,16340 <__any_on+0x18>
   1637c:	lw	x12,0(x15)
   16380:	addi	x10,x0,1
   16384:	srl	x14,x12,x11
   16388:	sll	x11,x14,x11
   1638c:	beq	x12,x11,16340 <__any_on+0x18>
   16390:	jalr	x0,x1,0
   16394:	slli	x15,x14,0x2
   16398:	add	x15,x13,x15
   1639c:	jal	x0,16340 <__any_on+0x18>
   163a0:	jalr	x0,x1,0
   163a4:	addi	x10,x0,0
   163a8:	jalr	x0,x1,0

000163ac <__fpclassifyd>:
   163ac:	or	x14,x11,x10
   163b0:	addi	x15,x10,0
   163b4:	addi	x10,x0,2
   163b8:	bne	x14,x0,163c0 <__fpclassifyd+0x14>
   163bc:	jalr	x0,x1,0
   163c0:	lui	x14,0x80000
   163c4:	beq	x11,x14,16414 <__fpclassifyd+0x68>
   163c8:	lui	x14,0xfff00
   163cc:	add	x14,x11,x14
   163d0:	lui	x13,0x7fe00
   163d4:	addi	x10,x0,4
   163d8:	bltu	x14,x13,163bc <__fpclassifyd+0x10>
   163dc:	lui	x14,0x7ff00
   163e0:	add	x14,x11,x14
   163e4:	bltu	x14,x13,163bc <__fpclassifyd+0x10>
   163e8:	lui	x14,0x80000
   163ec:	xori	x14,x14,-1
   163f0:	and	x11,x11,x14
   163f4:	lui	x14,0x100
   163f8:	addi	x10,x0,3
   163fc:	bltu	x11,x14,163bc <__fpclassifyd+0x10>
   16400:	lui	x14,0x7ff00
   16404:	addi	x10,x0,0
   16408:	bne	x11,x14,163bc <__fpclassifyd+0x10>
   1640c:	sltiu	x10,x15,1
   16410:	jalr	x0,x1,0
   16414:	addi	x10,x0,2
   16418:	bne	x15,x0,163e8 <__fpclassifyd+0x3c>
   1641c:	jalr	x0,x1,0

00016420 <__sread>:
   16420:	lh	x10,14(x11)
   16424:	addi	x2,x2,-16
   16428:	sw	x8,8(x2)
   1642c:	addi	x8,x11,0
   16430:	addi	x11,x12,0
   16434:	addi	x12,x13,0 # 7fe00000 <_gp+0x7fde2a50>
   16438:	sw	x1,12(x2)
   1643c:	jal	x1,18bec <read>
   16440:	blt	x10,x0,16478 <__sread+0x58>
   16444:	lw	x15,80(x8)
   16448:	lw	x13,84(x8)
   1644c:	srai	x12,x10,0x1f
   16450:	add	x11,x15,x10
   16454:	lw	x1,12(x2)
   16458:	sltu	x14,x11,x15
   1645c:	add	x15,x13,x12
   16460:	add	x15,x14,x15
   16464:	sw	x11,80(x8)
   16468:	sw	x15,84(x8)
   1646c:	lw	x8,8(x2)
   16470:	addi	x2,x2,16
   16474:	jalr	x0,x1,0
   16478:	lhu	x14,12(x8)
   1647c:	lui	x15,0xfffff
   16480:	lw	x1,12(x2)
   16484:	addi	x15,x15,-1 # ffffefff <_gp+0xfffe1a4f>
   16488:	and	x15,x14,x15
   1648c:	sh	x15,12(x8)
   16490:	lw	x8,8(x2)
   16494:	addi	x2,x2,16
   16498:	jalr	x0,x1,0

0001649c <__seofread>:
   1649c:	addi	x10,x0,0
   164a0:	jalr	x0,x1,0

000164a4 <__swrite>:
   164a4:	lh	x14,12(x11)
   164a8:	addi	x2,x2,-16
   164ac:	sw	x8,8(x2)
   164b0:	sw	x9,4(x2)
   164b4:	sw	x18,0(x2)
   164b8:	sw	x1,12(x2)
   164bc:	andi	x15,x14,256
   164c0:	addi	x8,x11,0
   164c4:	addi	x9,x12,0
   164c8:	addi	x18,x13,0
   164cc:	beq	x15,x0,164e8 <__swrite+0x44>
   164d0:	lh	x10,14(x11)
   164d4:	addi	x14,x0,2
   164d8:	addi	x12,x0,0
   164dc:	addi	x13,x0,0
   164e0:	jal	x1,18bcc <lseek>
   164e4:	lh	x14,12(x8)
   164e8:	lui	x15,0xfffff
   164ec:	addi	x15,x15,-1 # ffffefff <_gp+0xfffe1a4f>
   164f0:	and	x15,x14,x15
   164f4:	lh	x10,14(x8)
   164f8:	sh	x15,12(x8)
   164fc:	addi	x12,x18,0
   16500:	addi	x11,x9,0
   16504:	lw	x1,12(x2)
   16508:	lw	x8,8(x2)
   1650c:	lw	x9,4(x2)
   16510:	lw	x18,0(x2)
   16514:	addi	x2,x2,16
   16518:	jal	x0,18c00 <write>

0001651c <__sseek>:
   1651c:	lh	x10,14(x11)
   16520:	addi	x2,x2,-16
   16524:	sw	x8,8(x2)
   16528:	sw	x1,12(x2)
   1652c:	addi	x8,x11,0
   16530:	jal	x1,18bcc <lseek>
   16534:	addi	x15,x0,-1
   16538:	lhu	x14,12(x8)
   1653c:	beq	x10,x15,16564 <__sseek+0x48>
   16540:	lw	x1,12(x2)
   16544:	lui	x15,0x1
   16548:	or	x15,x14,x15
   1654c:	sw	x10,80(x8)
   16550:	sh	x15,12(x8)
   16554:	sw	x11,84(x8)
   16558:	lw	x8,8(x2)
   1655c:	addi	x2,x2,16
   16560:	jalr	x0,x1,0
   16564:	bne	x11,x10,16540 <__sseek+0x24>
   16568:	lui	x15,0xfffff
   1656c:	lw	x1,12(x2)
   16570:	addi	x15,x15,-1 # ffffefff <_gp+0xfffe1a4f>
   16574:	and	x15,x14,x15
   16578:	sh	x15,12(x8)
   1657c:	lw	x8,8(x2)
   16580:	addi	x2,x2,16
   16584:	jalr	x0,x1,0

00016588 <__sclose>:
   16588:	lh	x10,14(x11)
   1658c:	jal	x0,18c94 <close>

00016590 <strcmp>:
   16590:	or	x14,x10,x11
   16594:	addi	x7,x0,-1
   16598:	andi	x14,x14,3
   1659c:	bne	x14,x0,1665c <strcmp+0xcc>
   165a0:	lui	x28,0x7f7f8
   165a4:	addi	x28,x28,-129 # 7f7f7f7f <_gp+0x7f7da9cf>
   165a8:	lw	x12,0(x10)
   165ac:	lw	x13,0(x11)
   165b0:	and	x5,x12,x28
   165b4:	or	x6,x12,x28
   165b8:	add	x5,x5,x28
   165bc:	or	x5,x5,x6
   165c0:	bne	x5,x7,16684 <strcmp+0xf4>
   165c4:	bne	x12,x13,16610 <strcmp+0x80>
   165c8:	lw	x12,4(x10)
   165cc:	lw	x13,4(x11)
   165d0:	and	x5,x12,x28
   165d4:	or	x6,x12,x28
   165d8:	add	x5,x5,x28
   165dc:	or	x5,x5,x6
   165e0:	bne	x5,x7,1667c <strcmp+0xec>
   165e4:	bne	x12,x13,16610 <strcmp+0x80>
   165e8:	lw	x12,8(x10)
   165ec:	lw	x13,8(x11)
   165f0:	and	x5,x12,x28
   165f4:	or	x6,x12,x28
   165f8:	add	x5,x5,x28
   165fc:	or	x5,x5,x6
   16600:	bne	x5,x7,16690 <strcmp+0x100>
   16604:	addi	x10,x10,12
   16608:	addi	x11,x11,12
   1660c:	beq	x12,x13,165a8 <strcmp+0x18>
   16610:	slli	x14,x12,0x10
   16614:	slli	x15,x13,0x10
   16618:	bne	x14,x15,16634 <strcmp+0xa4>
   1661c:	srli	x14,x12,0x10
   16620:	srli	x15,x13,0x10
   16624:	sub	x10,x14,x15
   16628:	andi	x11,x10,255
   1662c:	bne	x11,x0,1664c <strcmp+0xbc>
   16630:	jalr	x0,x1,0
   16634:	srli	x14,x14,0x10
   16638:	srli	x15,x15,0x10
   1663c:	sub	x10,x14,x15
   16640:	andi	x11,x10,255
   16644:	bne	x11,x0,1664c <strcmp+0xbc>
   16648:	jalr	x0,x1,0
   1664c:	andi	x14,x14,255
   16650:	andi	x15,x15,255
   16654:	sub	x10,x14,x15
   16658:	jalr	x0,x1,0
   1665c:	lbu	x12,0(x10)
   16660:	lbu	x13,0(x11)
   16664:	addi	x10,x10,1
   16668:	addi	x11,x11,1
   1666c:	bne	x12,x13,16674 <strcmp+0xe4>
   16670:	bne	x12,x0,1665c <strcmp+0xcc>
   16674:	sub	x10,x12,x13
   16678:	jalr	x0,x1,0
   1667c:	addi	x10,x10,4
   16680:	addi	x11,x11,4
   16684:	bne	x12,x13,1665c <strcmp+0xcc>
   16688:	addi	x10,x0,0
   1668c:	jalr	x0,x1,0
   16690:	addi	x10,x10,8
   16694:	addi	x11,x11,8
   16698:	bne	x12,x13,1665c <strcmp+0xcc>
   1669c:	addi	x10,x0,0
   166a0:	jalr	x0,x1,0

000166a4 <strlen>:
   166a4:	andi	x15,x10,3
   166a8:	addi	x11,x10,0
   166ac:	bne	x15,x0,16700 <strlen+0x5c>
   166b0:	lui	x13,0x7f7f8
   166b4:	addi	x13,x13,-129 # 7f7f7f7f <_gp+0x7f7da9cf>
   166b8:	addi	x12,x0,-1
   166bc:	addi	x10,x10,4
   166c0:	lw	x15,-4(x10)
   166c4:	and	x14,x15,x13
   166c8:	add	x14,x14,x13
   166cc:	or	x15,x15,x13
   166d0:	or	x15,x14,x15
   166d4:	beq	x15,x12,166bc <strlen+0x18>
   166d8:	lbu	x14,-4(x10)
   166dc:	sub	x15,x10,x11
   166e0:	lbu	x13,-3(x10)
   166e4:	lbu	x12,-2(x10)
   166e8:	beq	x14,x0,16724 <strlen+0x80>
   166ec:	beq	x13,x0,1671c <strlen+0x78>
   166f0:	addi	x10,x15,-1
   166f4:	beq	x12,x0,1672c <strlen+0x88>
   166f8:	jalr	x0,x1,0
   166fc:	beq	x14,x0,166b0 <strlen+0xc>
   16700:	lbu	x15,0(x10)
   16704:	addi	x10,x10,1
   16708:	andi	x14,x10,3
   1670c:	bne	x15,x0,166fc <strlen+0x58>
   16710:	sub	x10,x10,x11
   16714:	addi	x10,x10,-1
   16718:	jalr	x0,x1,0
   1671c:	addi	x10,x15,-3
   16720:	jalr	x0,x1,0
   16724:	addi	x10,x15,-4
   16728:	jalr	x0,x1,0
   1672c:	addi	x10,x15,-2
   16730:	jalr	x0,x1,0

00016734 <__sprint_r.part.0>:
   16734:	lw	x15,104(x11)
   16738:	addi	x2,x2,-48
   1673c:	sw	x22,16(x2)
   16740:	sw	x1,44(x2)
   16744:	sw	x8,40(x2)
   16748:	sw	x9,36(x2)
   1674c:	sw	x18,32(x2)
   16750:	sw	x19,28(x2)
   16754:	sw	x20,24(x2)
   16758:	sw	x21,20(x2)
   1675c:	sw	x23,12(x2)
   16760:	slli	x14,x15,0x12
   16764:	addi	x22,x12,0
   16768:	bge	x14,x0,16814 <__sprint_r.part.0+0xe0>
   1676c:	lw	x15,8(x12)
   16770:	addi	x20,x11,0
   16774:	addi	x21,x10,0
   16778:	lw	x23,0(x12)
   1677c:	addi	x19,x0,-1
   16780:	beq	x15,x0,1680c <__sprint_r.part.0+0xd8>
   16784:	lw	x18,4(x23)
   16788:	lw	x9,0(x23)
   1678c:	addi	x8,x0,0
   16790:	srli	x18,x18,0x2
   16794:	bne	x18,x0,167a4 <__sprint_r.part.0+0x70>
   16798:	jal	x0,167f8 <__sprint_r.part.0+0xc4>
   1679c:	addi	x9,x9,4
   167a0:	beq	x18,x8,167f4 <__sprint_r.part.0+0xc0>
   167a4:	lw	x11,0(x9)
   167a8:	addi	x12,x20,0
   167ac:	addi	x10,x21,0
   167b0:	jal	x1,17c44 <_fputwc_r>
   167b4:	addi	x8,x8,1
   167b8:	bne	x10,x19,1679c <__sprint_r.part.0+0x68>
   167bc:	addi	x10,x19,0
   167c0:	lw	x1,44(x2)
   167c4:	sw	x0,8(x22)
   167c8:	sw	x0,4(x22)
   167cc:	lw	x8,40(x2)
   167d0:	lw	x9,36(x2)
   167d4:	lw	x18,32(x2)
   167d8:	lw	x19,28(x2)
   167dc:	lw	x20,24(x2)
   167e0:	lw	x21,20(x2)
   167e4:	lw	x22,16(x2)
   167e8:	lw	x23,12(x2)
   167ec:	addi	x2,x2,48
   167f0:	jalr	x0,x1,0
   167f4:	lw	x15,8(x22)
   167f8:	slli	x18,x18,0x2
   167fc:	sub	x15,x15,x18
   16800:	sw	x15,8(x22)
   16804:	addi	x23,x23,8
   16808:	bne	x15,x0,16784 <__sprint_r.part.0+0x50>
   1680c:	addi	x10,x0,0
   16810:	jal	x0,167c0 <__sprint_r.part.0+0x8c>
   16814:	jal	x1,17ce8 <__sfvwrite_r>
   16818:	jal	x0,167c0 <__sprint_r.part.0+0x8c>

0001681c <__sprint_r>:
   1681c:	lw	x14,8(x12)
   16820:	beq	x14,x0,16828 <__sprint_r+0xc>
   16824:	jal	x0,16734 <__sprint_r.part.0>
   16828:	sw	x0,4(x12)
   1682c:	addi	x10,x0,0
   16830:	jalr	x0,x1,0

00016834 <_vfiprintf_r>:
   16834:	addi	x2,x2,-240
   16838:	sw	x9,228(x2)
   1683c:	sw	x21,212(x2)
   16840:	sw	x26,192(x2)
   16844:	sw	x1,236(x2)
   16848:	sw	x8,232(x2)
   1684c:	sw	x18,224(x2)
   16850:	sw	x19,220(x2)
   16854:	sw	x20,216(x2)
   16858:	sw	x22,208(x2)
   1685c:	sw	x23,204(x2)
   16860:	sw	x24,200(x2)
   16864:	sw	x25,196(x2)
   16868:	sw	x27,188(x2)
   1686c:	sw	x13,8(x2)
   16870:	addi	x21,x10,0
   16874:	addi	x26,x11,0
   16878:	addi	x9,x12,0
   1687c:	beq	x10,x0,16888 <_vfiprintf_r+0x54>
   16880:	lw	x15,56(x10)
   16884:	beq	x15,x0,16a78 <_vfiprintf_r+0x244>
   16888:	lh	x13,12(x26)
   1688c:	slli	x15,x13,0x10
   16890:	srli	x15,x15,0x10
   16894:	slli	x14,x15,0x12
   16898:	blt	x14,x0,168c4 <_vfiprintf_r+0x90>
   1689c:	lw	x12,104(x26)
   168a0:	lui	x15,0x2
   168a4:	lui	x14,0xffffe
   168a8:	or	x15,x13,x15
   168ac:	addi	x14,x14,-1 # ffffdfff <_gp+0xfffe0a4f>
   168b0:	and	x14,x12,x14
   168b4:	sh	x15,12(x26)
   168b8:	slli	x15,x15,0x10
   168bc:	sw	x14,104(x26)
   168c0:	srli	x15,x15,0x10
   168c4:	andi	x14,x15,8
   168c8:	beq	x14,x0,16a00 <_vfiprintf_r+0x1cc>
   168cc:	lw	x14,16(x26)
   168d0:	beq	x14,x0,16a00 <_vfiprintf_r+0x1cc>
   168d4:	andi	x15,x15,26
   168d8:	addi	x14,x0,10
   168dc:	beq	x15,x14,16a20 <_vfiprintf_r+0x1ec>
   168e0:	lui	x24,0x1b
   168e4:	addi	x15,x24,-256 # 1af00 <__mprec_bigtens+0x28>
   168e8:	addi	x25,x2,112
   168ec:	sw	x15,12(x2)
   168f0:	addi	x15,x2,111
   168f4:	lui	x28,0x1b
   168f8:	lui	x17,0x1b
   168fc:	sub	x15,x25,x15
   16900:	sw	x25,60(x2)
   16904:	sw	x0,68(x2)
   16908:	sw	x0,64(x2)
   1690c:	sw	x0,28(x2)
   16910:	sw	x0,4(x2)
   16914:	addi	x22,x28,100 # 1b064 <blanks.4133>
   16918:	addi	x24,x17,116 # 1b074 <zeroes.4134>
   1691c:	sw	x15,32(x2)
   16920:	addi	x16,x25,0
   16924:	addi	x8,x9,0
   16928:	lbu	x15,0(x8)
   1692c:	beq	x15,x0,175f4 <_vfiprintf_r+0xdc0>
   16930:	addi	x14,x0,37
   16934:	addi	x18,x8,0
   16938:	bne	x15,x14,16944 <_vfiprintf_r+0x110>
   1693c:	jal	x0,16990 <_vfiprintf_r+0x15c>
   16940:	beq	x15,x14,16950 <_vfiprintf_r+0x11c>
   16944:	addi	x18,x18,1
   16948:	lbu	x15,0(x18)
   1694c:	bne	x15,x0,16940 <_vfiprintf_r+0x10c>
   16950:	sub	x9,x18,x8
   16954:	beq	x9,x0,16990 <_vfiprintf_r+0x15c>
   16958:	lw	x14,68(x2)
   1695c:	lw	x15,64(x2)
   16960:	sw	x8,0(x16)
   16964:	add	x14,x9,x14
   16968:	addi	x15,x15,1 # 2001 <_ftext-0xdfff>
   1696c:	sw	x9,4(x16)
   16970:	sw	x14,68(x2)
   16974:	sw	x15,64(x2)
   16978:	addi	x13,x0,7
   1697c:	addi	x16,x16,8
   16980:	blt	x13,x15,169e4 <_vfiprintf_r+0x1b0>
   16984:	lw	x15,4(x2)
   16988:	add	x15,x15,x9
   1698c:	sw	x15,4(x2)
   16990:	lbu	x15,0(x18)
   16994:	beq	x15,x0,171f8 <_vfiprintf_r+0x9c4>
   16998:	addi	x9,x18,1
   1699c:	sb	x0,55(x2)
   169a0:	addi	x10,x0,0
   169a4:	addi	x17,x0,0
   169a8:	addi	x13,x0,-1
   169ac:	addi	x18,x0,0
   169b0:	addi	x23,x0,0
   169b4:	addi	x12,x0,88
   169b8:	addi	x11,x0,9
   169bc:	addi	x29,x0,42
   169c0:	lbu	x14,0(x9)
   169c4:	addi	x8,x9,1
   169c8:	addi	x15,x14,-32
   169cc:	bltu	x12,x15,17064 <_vfiprintf_r+0x830>
   169d0:	lw	x6,12(x2)
   169d4:	slli	x15,x15,0x2
   169d8:	add	x15,x15,x6
   169dc:	lw	x15,0(x15)
   169e0:	jalr	x0,x15,0
   169e4:	bne	x14,x0,174cc <_vfiprintf_r+0xc98>
   169e8:	sw	x0,64(x2)
   169ec:	addi	x16,x25,0
   169f0:	jal	x0,16984 <_vfiprintf_r+0x150>
   169f4:	ori	x23,x23,16
   169f8:	addi	x9,x8,0
   169fc:	jal	x0,169c0 <_vfiprintf_r+0x18c>
   16a00:	addi	x11,x26,0
   16a04:	addi	x10,x21,0
   16a08:	jal	x1,120ec <__swsetup_r>
   16a0c:	bne	x10,x0,176b8 <_vfiprintf_r+0xe84>
   16a10:	lhu	x15,12(x26)
   16a14:	addi	x14,x0,10
   16a18:	andi	x15,x15,26
   16a1c:	bne	x15,x14,168e0 <_vfiprintf_r+0xac>
   16a20:	lh	x15,14(x26)
   16a24:	blt	x15,x0,168e0 <_vfiprintf_r+0xac>
   16a28:	lw	x13,8(x2)
   16a2c:	addi	x12,x9,0
   16a30:	addi	x11,x26,0
   16a34:	addi	x10,x21,0
   16a38:	jal	x1,17874 <__sbprintf>
   16a3c:	lw	x1,236(x2)
   16a40:	lw	x8,232(x2)
   16a44:	lw	x9,228(x2)
   16a48:	lw	x18,224(x2)
   16a4c:	lw	x19,220(x2)
   16a50:	lw	x20,216(x2)
   16a54:	lw	x21,212(x2)
   16a58:	lw	x22,208(x2)
   16a5c:	lw	x23,204(x2)
   16a60:	lw	x24,200(x2)
   16a64:	lw	x25,196(x2)
   16a68:	lw	x26,192(x2)
   16a6c:	lw	x27,188(x2)
   16a70:	addi	x2,x2,240
   16a74:	jalr	x0,x1,0
   16a78:	jal	x1,141b4 <__sinit>
   16a7c:	jal	x0,16888 <_vfiprintf_r+0x54>
   16a80:	lw	x15,8(x2)
   16a84:	lw	x18,0(x15)
   16a88:	addi	x15,x15,4
   16a8c:	sw	x15,8(x2)
   16a90:	bge	x18,x0,169f8 <_vfiprintf_r+0x1c4>
   16a94:	sub	x18,x0,x18
   16a98:	ori	x23,x23,4
   16a9c:	addi	x9,x8,0
   16aa0:	jal	x0,169c0 <_vfiprintf_r+0x18c>
   16aa4:	addi	x15,x0,48
   16aa8:	sb	x15,56(x2)
   16aac:	addi	x15,x0,120
   16ab0:	sb	x15,57(x2)
   16ab4:	lw	x15,8(x2)
   16ab8:	sb	x0,55(x2)
   16abc:	ori	x12,x23,2
   16ac0:	addi	x14,x15,4
   16ac4:	lw	x15,0(x15)
   16ac8:	blt	x13,x0,17594 <_vfiprintf_r+0xd60>
   16acc:	andi	x28,x23,-129
   16ad0:	sw	x14,8(x2)
   16ad4:	ori	x23,x28,2
   16ad8:	bne	x15,x0,175b8 <_vfiprintf_r+0xd84>
   16adc:	lui	x27,0x1b
   16ae0:	addi	x15,x27,500 # 1b1f4 <__clz_tab+0x144>
   16ae4:	sw	x15,28(x2)
   16ae8:	addi	x12,x0,0
   16aec:	bne	x13,x0,174e8 <_vfiprintf_r+0xcb4>
   16af0:	addi	x13,x0,0
   16af4:	addi	x20,x0,0
   16af8:	addi	x27,x25,0
   16afc:	addi	x19,x13,0
   16b00:	bge	x13,x20,16b08 <_vfiprintf_r+0x2d4>
   16b04:	addi	x19,x20,0
   16b08:	sltu	x12,x0,x12
   16b0c:	add	x19,x19,x12
   16b10:	andi	x31,x23,2
   16b14:	beq	x31,x0,16b1c <_vfiprintf_r+0x2e8>
   16b18:	addi	x19,x19,2
   16b1c:	andi	x9,x23,132
   16b20:	bne	x9,x0,170dc <_vfiprintf_r+0x8a8>
   16b24:	sub	x14,x18,x19
   16b28:	bge	x0,x14,170dc <_vfiprintf_r+0x8a8>
   16b2c:	addi	x17,x0,16
   16b30:	lw	x15,68(x2)
   16b34:	bge	x17,x14,17728 <_vfiprintf_r+0xef4>
   16b38:	sw	x8,44(x2)
   16b3c:	lw	x10,64(x2)
   16b40:	sw	x22,24(x2)
   16b44:	addi	x5,x0,7
   16b48:	sw	x13,36(x2)
   16b4c:	sw	x31,40(x2)
   16b50:	addi	x8,x14,0
   16b54:	jal	x0,16b6c <_vfiprintf_r+0x338>
   16b58:	addi	x12,x10,2
   16b5c:	addi	x16,x16,8
   16b60:	addi	x10,x13,0
   16b64:	addi	x8,x8,-16
   16b68:	bge	x17,x8,16ba0 <_vfiprintf_r+0x36c>
   16b6c:	addi	x15,x15,16
   16b70:	addi	x13,x10,1
   16b74:	sw	x22,0(x16)
   16b78:	sw	x17,4(x16)
   16b7c:	sw	x15,68(x2)
   16b80:	sw	x13,64(x2)
   16b84:	bge	x5,x13,16b58 <_vfiprintf_r+0x324>
   16b88:	bne	x15,x0,170a4 <_vfiprintf_r+0x870>
   16b8c:	addi	x8,x8,-16
   16b90:	addi	x10,x0,0
   16b94:	addi	x12,x0,1
   16b98:	addi	x16,x25,0
   16b9c:	blt	x17,x8,16b6c <_vfiprintf_r+0x338>
   16ba0:	addi	x14,x8,0
   16ba4:	lw	x13,36(x2)
   16ba8:	lw	x31,40(x2)
   16bac:	lw	x8,44(x2)
   16bb0:	lw	x11,24(x2)
   16bb4:	add	x15,x14,x15
   16bb8:	sw	x14,4(x16)
   16bbc:	sw	x11,0(x16)
   16bc0:	sw	x15,68(x2)
   16bc4:	sw	x12,64(x2)
   16bc8:	addi	x14,x0,7
   16bcc:	blt	x14,x12,17388 <_vfiprintf_r+0xb54>
   16bd0:	lbu	x14,55(x2)
   16bd4:	addi	x16,x16,8
   16bd8:	addi	x11,x12,1
   16bdc:	bne	x14,x0,170f0 <_vfiprintf_r+0x8bc>
   16be0:	beq	x31,x0,17128 <_vfiprintf_r+0x8f4>
   16be4:	addi	x14,x2,56
   16be8:	addi	x15,x15,2
   16bec:	sw	x14,0(x16)
   16bf0:	addi	x14,x0,2
   16bf4:	sw	x14,4(x16)
   16bf8:	sw	x15,68(x2)
   16bfc:	sw	x11,64(x2)
   16c00:	addi	x14,x0,7
   16c04:	bge	x14,x11,173d4 <_vfiprintf_r+0xba0>
   16c08:	bne	x15,x0,174f0 <_vfiprintf_r+0xcbc>
   16c0c:	addi	x14,x0,128
   16c10:	addi	x11,x0,1
   16c14:	addi	x12,x0,0
   16c18:	addi	x16,x25,0
   16c1c:	bne	x9,x14,17130 <_vfiprintf_r+0x8fc>
   16c20:	sub	x9,x18,x19
   16c24:	bge	x0,x9,17130 <_vfiprintf_r+0x8fc>
   16c28:	addi	x30,x0,16
   16c2c:	bge	x30,x9,177a4 <_vfiprintf_r+0xf70>
   16c30:	addi	x14,x8,0
   16c34:	sw	x24,24(x2)
   16c38:	addi	x8,x9,0
   16c3c:	addi	x31,x0,7
   16c40:	sw	x13,36(x2)
   16c44:	addi	x9,x14,0
   16c48:	jal	x0,16c60 <_vfiprintf_r+0x42c>
   16c4c:	addi	x10,x12,2
   16c50:	addi	x16,x16,8
   16c54:	addi	x12,x14,0
   16c58:	addi	x8,x8,-16
   16c5c:	bge	x30,x8,16c94 <_vfiprintf_r+0x460>
   16c60:	addi	x15,x15,16
   16c64:	addi	x14,x12,1
   16c68:	sw	x24,0(x16)
   16c6c:	sw	x30,4(x16)
   16c70:	sw	x15,68(x2)
   16c74:	sw	x14,64(x2)
   16c78:	bge	x31,x14,16c4c <_vfiprintf_r+0x418>
   16c7c:	bne	x15,x0,17350 <_vfiprintf_r+0xb1c>
   16c80:	addi	x8,x8,-16
   16c84:	addi	x10,x0,1
   16c88:	addi	x12,x0,0
   16c8c:	addi	x16,x25,0
   16c90:	blt	x30,x8,16c60 <_vfiprintf_r+0x42c>
   16c94:	lw	x13,36(x2)
   16c98:	addi	x14,x9,0
   16c9c:	addi	x9,x8,0
   16ca0:	addi	x8,x14,0
   16ca4:	lw	x14,24(x2)
   16ca8:	add	x15,x15,x9
   16cac:	sw	x9,4(x16)
   16cb0:	sw	x14,0(x16)
   16cb4:	sw	x15,68(x2)
   16cb8:	sw	x10,64(x2)
   16cbc:	addi	x14,x0,7
   16cc0:	blt	x14,x10,17558 <_vfiprintf_r+0xd24>
   16cc4:	sub	x9,x13,x20
   16cc8:	addi	x16,x16,8
   16ccc:	addi	x11,x10,1
   16cd0:	addi	x12,x10,0
   16cd4:	blt	x0,x9,17138 <_vfiprintf_r+0x904>
   16cd8:	add	x15,x20,x15
   16cdc:	sw	x27,0(x16)
   16ce0:	sw	x20,4(x16)
   16ce4:	sw	x15,68(x2)
   16ce8:	sw	x11,64(x2)
   16cec:	addi	x14,x0,7
   16cf0:	bge	x14,x11,17244 <_vfiprintf_r+0xa10>
   16cf4:	bne	x15,x0,17460 <_vfiprintf_r+0xc2c>
   16cf8:	sw	x0,64(x2)
   16cfc:	andi	x28,x23,4
   16d00:	beq	x28,x0,16d0c <_vfiprintf_r+0x4d8>
   16d04:	sub	x20,x18,x19
   16d08:	blt	x0,x20,176c0 <_vfiprintf_r+0xe8c>
   16d0c:	bge	x18,x19,16d14 <_vfiprintf_r+0x4e0>
   16d10:	addi	x18,x19,0
   16d14:	lw	x15,4(x2)
   16d18:	add	x15,x15,x18
   16d1c:	sw	x15,4(x2)
   16d20:	sw	x0,64(x2)
   16d24:	addi	x16,x25,0
   16d28:	jal	x0,16928 <_vfiprintf_r+0xf4>
   16d2c:	addi	x10,x0,1
   16d30:	addi	x17,x0,43
   16d34:	addi	x9,x8,0
   16d38:	jal	x0,169c0 <_vfiprintf_r+0x18c>
   16d3c:	ori	x23,x23,128
   16d40:	addi	x9,x8,0
   16d44:	jal	x0,169c0 <_vfiprintf_r+0x18c>
   16d48:	addi	x18,x0,0
   16d4c:	addi	x15,x14,-48
   16d50:	addi	x8,x8,1
   16d54:	lbu	x14,-1(x8)
   16d58:	slli	x6,x18,0x1
   16d5c:	slli	x18,x18,0x3
   16d60:	add	x18,x6,x18
   16d64:	add	x18,x15,x18
   16d68:	addi	x15,x14,-48
   16d6c:	bgeu	x11,x15,16d50 <_vfiprintf_r+0x51c>
   16d70:	jal	x0,169c8 <_vfiprintf_r+0x194>
   16d74:	bne	x10,x0,17814 <_vfiprintf_r+0xfe0>
   16d78:	ori	x23,x23,16
   16d7c:	andi	x15,x23,16
   16d80:	beq	x15,x0,174b0 <_vfiprintf_r+0xc7c>
   16d84:	lw	x14,8(x2)
   16d88:	lw	x15,0(x14)
   16d8c:	addi	x14,x14,4
   16d90:	sw	x14,8(x2)
   16d94:	blt	x15,x0,17624 <_vfiprintf_r+0xdf0>
   16d98:	lbu	x12,55(x2)
   16d9c:	blt	x13,x0,17440 <_vfiprintf_r+0xc0c>
   16da0:	andi	x23,x23,-129
   16da4:	beq	x15,x0,16ec0 <_vfiprintf_r+0x68c>
   16da8:	addi	x14,x0,9
   16dac:	addi	x27,x25,0
   16db0:	addi	x11,x0,10
   16db4:	bgeu	x14,x15,16ec8 <_vfiprintf_r+0x694>
   16db8:	remu	x14,x15,x11
   16dbc:	addi	x27,x27,-1
   16dc0:	divu	x15,x15,x11
   16dc4:	addi	x14,x14,48
   16dc8:	sb	x14,0(x27)
   16dcc:	bne	x15,x0,16db8 <_vfiprintf_r+0x584>
   16dd0:	sub	x20,x25,x27
   16dd4:	jal	x0,16afc <_vfiprintf_r+0x2c8>
   16dd8:	bne	x10,x0,17824 <_vfiprintf_r+0xff0>
   16ddc:	ori	x23,x23,16
   16de0:	andi	x15,x23,16
   16de4:	beq	x15,x0,17480 <_vfiprintf_r+0xc4c>
   16de8:	lw	x15,8(x2)
   16dec:	sb	x0,55(x2)
   16df0:	addi	x14,x15,4
   16df4:	lw	x15,0(x15)
   16df8:	blt	x13,x0,1749c <_vfiprintf_r+0xc68>
   16dfc:	sw	x14,8(x2)
   16e00:	andi	x23,x23,-129
   16e04:	bne	x15,x0,174a8 <_vfiprintf_r+0xc74>
   16e08:	addi	x12,x0,0
   16e0c:	addi	x15,x0,0
   16e10:	beq	x13,x0,17834 <_vfiprintf_r+0x1000>
   16e14:	addi	x27,x25,0
   16e18:	andi	x14,x15,7
   16e1c:	addi	x27,x27,-1
   16e20:	addi	x14,x14,48
   16e24:	sb	x14,0(x27)
   16e28:	srli	x15,x15,0x3
   16e2c:	bne	x15,x0,16e18 <_vfiprintf_r+0x5e4>
   16e30:	andi	x15,x23,1
   16e34:	beq	x15,x0,16dd0 <_vfiprintf_r+0x59c>
   16e38:	addi	x15,x0,48
   16e3c:	beq	x14,x15,16dd0 <_vfiprintf_r+0x59c>
   16e40:	addi	x14,x27,-1
   16e44:	sb	x15,-1(x27)
   16e48:	sub	x20,x25,x14
   16e4c:	addi	x27,x14,0
   16e50:	jal	x0,16afc <_vfiprintf_r+0x2c8>
   16e54:	bne	x10,x0,1782c <_vfiprintf_r+0xff8>
   16e58:	andi	x15,x23,16
   16e5c:	bne	x15,x0,17088 <_vfiprintf_r+0x854>
   16e60:	andi	x28,x23,64
   16e64:	beq	x28,x0,17088 <_vfiprintf_r+0x854>
   16e68:	lw	x14,8(x2)
   16e6c:	lw	x15,0(x14)
   16e70:	addi	x14,x14,4
   16e74:	sw	x14,8(x2)
   16e78:	lhu	x14,4(x2)
   16e7c:	sh	x14,0(x15)
   16e80:	jal	x0,16928 <_vfiprintf_r+0xf4>
   16e84:	bne	x10,x0,1780c <_vfiprintf_r+0xfd8>
   16e88:	ori	x23,x23,16
   16e8c:	andi	x15,x23,16
   16e90:	bne	x15,x0,17424 <_vfiprintf_r+0xbf0>
   16e94:	andi	x15,x23,64
   16e98:	sb	x0,55(x2)
   16e9c:	beq	x15,x0,17610 <_vfiprintf_r+0xddc>
   16ea0:	lw	x15,8(x2)
   16ea4:	addi	x14,x15,4
   16ea8:	lhu	x15,0(x15)
   16eac:	blt	x13,x0,17438 <_vfiprintf_r+0xc04>
   16eb0:	sw	x14,8(x2)
   16eb4:	andi	x23,x23,-129
   16eb8:	addi	x12,x0,0
   16ebc:	bne	x15,x0,16da8 <_vfiprintf_r+0x574>
   16ec0:	beq	x13,x0,16af0 <_vfiprintf_r+0x2bc>
   16ec4:	addi	x15,x0,0
   16ec8:	addi	x15,x15,48
   16ecc:	sb	x15,111(x2)
   16ed0:	lw	x20,32(x2)
   16ed4:	addi	x27,x2,111
   16ed8:	jal	x0,16afc <_vfiprintf_r+0x2c8>
   16edc:	bne	x17,x0,169f8 <_vfiprintf_r+0x1c4>
   16ee0:	addi	x10,x0,1
   16ee4:	addi	x17,x0,32
   16ee8:	addi	x9,x8,0
   16eec:	jal	x0,169c0 <_vfiprintf_r+0x18c>
   16ef0:	ori	x23,x23,1
   16ef4:	addi	x9,x8,0
   16ef8:	jal	x0,169c0 <_vfiprintf_r+0x18c>
   16efc:	lw	x15,8(x2)
   16f00:	sb	x0,55(x2)
   16f04:	lw	x27,0(x15)
   16f08:	addi	x9,x15,4
   16f0c:	beq	x27,x0,17758 <_vfiprintf_r+0xf24>
   16f10:	sw	x16,16(x2)
   16f14:	blt	x13,x0,176d8 <_vfiprintf_r+0xea4>
   16f18:	addi	x12,x13,0
   16f1c:	addi	x11,x0,0
   16f20:	addi	x10,x27,0
   16f24:	sw	x13,8(x2)
   16f28:	jal	x1,150c0 <memchr>
   16f2c:	lw	x13,8(x2)
   16f30:	lw	x16,16(x2)
   16f34:	beq	x10,x0,177b0 <_vfiprintf_r+0xf7c>
   16f38:	sub	x20,x10,x27
   16f3c:	lbu	x12,55(x2)
   16f40:	sw	x9,8(x2)
   16f44:	addi	x13,x0,0
   16f48:	jal	x0,16afc <_vfiprintf_r+0x2c8>
   16f4c:	beq	x10,x0,16e8c <_vfiprintf_r+0x658>
   16f50:	sb	x17,55(x2)
   16f54:	jal	x0,16e8c <_vfiprintf_r+0x658>
   16f58:	lw	x14,8(x2)
   16f5c:	addi	x19,x0,1
   16f60:	sb	x0,55(x2)
   16f64:	lw	x15,0(x14)
   16f68:	addi	x20,x19,0
   16f6c:	addi	x27,x2,72
   16f70:	sb	x15,72(x2)
   16f74:	addi	x15,x14,4
   16f78:	sw	x15,8(x2)
   16f7c:	addi	x13,x0,0
   16f80:	jal	x0,16b10 <_vfiprintf_r+0x2dc>
   16f84:	beq	x10,x0,16d7c <_vfiprintf_r+0x548>
   16f88:	sb	x17,55(x2)
   16f8c:	jal	x0,16d7c <_vfiprintf_r+0x548>
   16f90:	bne	x10,x0,17804 <_vfiprintf_r+0xfd0>
   16f94:	lui	x27,0x1b
   16f98:	addi	x15,x27,480 # 1b1e0 <__clz_tab+0x130>
   16f9c:	sw	x15,28(x2)
   16fa0:	andi	x15,x23,16
   16fa4:	beq	x15,x0,17004 <_vfiprintf_r+0x7d0>
   16fa8:	lw	x12,8(x2)
   16fac:	lw	x15,0(x12)
   16fb0:	addi	x12,x12,4
   16fb4:	sw	x12,8(x2)
   16fb8:	andi	x12,x23,1
   16fbc:	beq	x12,x0,173e4 <_vfiprintf_r+0xbb0>
   16fc0:	bne	x15,x0,175cc <_vfiprintf_r+0xd98>
   16fc4:	sb	x0,55(x2)
   16fc8:	blt	x13,x0,175ac <_vfiprintf_r+0xd78>
   16fcc:	andi	x23,x23,-129
   16fd0:	jal	x0,16ae8 <_vfiprintf_r+0x2b4>
   16fd4:	beq	x10,x0,16de0 <_vfiprintf_r+0x5ac>
   16fd8:	sb	x17,55(x2)
   16fdc:	jal	x0,16de0 <_vfiprintf_r+0x5ac>
   16fe0:	ori	x23,x23,64
   16fe4:	addi	x9,x8,0
   16fe8:	jal	x0,169c0 <_vfiprintf_r+0x18c>
   16fec:	bne	x10,x0,177fc <_vfiprintf_r+0xfc8>
   16ff0:	lui	x27,0x1b
   16ff4:	addi	x15,x27,500 # 1b1f4 <__clz_tab+0x144>
   16ff8:	sw	x15,28(x2)
   16ffc:	andi	x15,x23,16
   17000:	bne	x15,x0,16fa8 <_vfiprintf_r+0x774>
   17004:	andi	x15,x23,64
   17008:	lw	x12,8(x2)
   1700c:	beq	x15,x0,17660 <_vfiprintf_r+0xe2c>
   17010:	lhu	x15,0(x12)
   17014:	addi	x12,x12,4
   17018:	sw	x12,8(x2)
   1701c:	jal	x0,16fb8 <_vfiprintf_r+0x784>
   17020:	lbu	x14,0(x8)
   17024:	addi	x8,x8,1
   17028:	beq	x14,x29,177dc <_vfiprintf_r+0xfa8>
   1702c:	addi	x15,x14,-48
   17030:	addi	x13,x0,0
   17034:	bltu	x11,x15,169c8 <_vfiprintf_r+0x194>
   17038:	addi	x8,x8,1
   1703c:	lbu	x14,-1(x8)
   17040:	slli	x6,x13,0x1
   17044:	slli	x13,x13,0x3
   17048:	add	x13,x6,x13
   1704c:	add	x13,x13,x15
   17050:	addi	x15,x14,-48
   17054:	bgeu	x11,x15,17038 <_vfiprintf_r+0x804>
   17058:	bge	x13,x0,169c8 <_vfiprintf_r+0x194>
   1705c:	addi	x13,x0,-1
   17060:	jal	x0,169c8 <_vfiprintf_r+0x194>
   17064:	bne	x10,x0,1781c <_vfiprintf_r+0xfe8>
   17068:	beq	x14,x0,171f8 <_vfiprintf_r+0x9c4>
   1706c:	addi	x19,x0,1
   17070:	sb	x14,72(x2)
   17074:	sb	x0,55(x2)
   17078:	addi	x20,x19,0
   1707c:	addi	x27,x2,72
   17080:	addi	x13,x0,0
   17084:	jal	x0,16b10 <_vfiprintf_r+0x2dc>
   17088:	lw	x14,8(x2)
   1708c:	lw	x15,0(x14)
   17090:	addi	x14,x14,4
   17094:	sw	x14,8(x2)
   17098:	lw	x14,4(x2)
   1709c:	sw	x14,0(x15)
   170a0:	jal	x0,16928 <_vfiprintf_r+0xf4>
   170a4:	addi	x12,x2,60
   170a8:	addi	x11,x26,0
   170ac:	addi	x10,x21,0
   170b0:	sw	x5,20(x2)
   170b4:	sw	x17,16(x2)
   170b8:	jal	x1,16734 <__sprint_r.part.0>
   170bc:	bne	x10,x0,17210 <_vfiprintf_r+0x9dc>
   170c0:	lw	x10,64(x2)
   170c4:	lw	x15,68(x2)
   170c8:	addi	x16,x25,0
   170cc:	addi	x12,x10,1
   170d0:	lw	x5,20(x2)
   170d4:	lw	x17,16(x2)
   170d8:	jal	x0,16b64 <_vfiprintf_r+0x330>
   170dc:	lw	x12,64(x2)
   170e0:	lw	x15,68(x2)
   170e4:	addi	x11,x12,1
   170e8:	lbu	x14,55(x2)
   170ec:	beq	x14,x0,16be0 <_vfiprintf_r+0x3ac>
   170f0:	addi	x14,x0,1
   170f4:	addi	x12,x2,55
   170f8:	add	x15,x15,x14
   170fc:	sw	x12,0(x16)
   17100:	sw	x14,4(x16)
   17104:	sw	x15,68(x2)
   17108:	sw	x11,64(x2)
   1710c:	addi	x12,x0,7
   17110:	bge	x12,x11,173ac <_vfiprintf_r+0xb78>
   17114:	bne	x15,x0,17520 <_vfiprintf_r+0xcec>
   17118:	bne	x31,x0,173bc <_vfiprintf_r+0xb88>
   1711c:	addi	x12,x0,0
   17120:	addi	x11,x14,0
   17124:	addi	x16,x25,0
   17128:	addi	x14,x0,128
   1712c:	beq	x9,x14,16c20 <_vfiprintf_r+0x3ec>
   17130:	sub	x9,x13,x20
   17134:	bge	x0,x9,16cd8 <_vfiprintf_r+0x4a4>
   17138:	addi	x17,x0,16
   1713c:	sw	x24,24(x2)
   17140:	bge	x17,x9,17194 <_vfiprintf_r+0x960>
   17144:	addi	x30,x0,7
   17148:	jal	x0,17160 <_vfiprintf_r+0x92c>
   1714c:	addi	x11,x12,2
   17150:	addi	x16,x16,8
   17154:	addi	x12,x14,0
   17158:	addi	x9,x9,-16
   1715c:	bge	x17,x9,17194 <_vfiprintf_r+0x960>
   17160:	addi	x15,x15,16
   17164:	addi	x14,x12,1
   17168:	sw	x24,0(x16)
   1716c:	sw	x17,4(x16)
   17170:	sw	x15,68(x2)
   17174:	sw	x14,64(x2)
   17178:	bge	x30,x14,1714c <_vfiprintf_r+0x918>
   1717c:	bne	x15,x0,171c0 <_vfiprintf_r+0x98c>
   17180:	addi	x9,x9,-16
   17184:	addi	x11,x0,1
   17188:	addi	x12,x0,0
   1718c:	addi	x16,x25,0
   17190:	blt	x17,x9,17160 <_vfiprintf_r+0x92c>
   17194:	lw	x14,24(x2)
   17198:	add	x15,x15,x9
   1719c:	sw	x9,4(x16)
   171a0:	sw	x14,0(x16)
   171a4:	sw	x15,68(x2)
   171a8:	sw	x11,64(x2)
   171ac:	addi	x14,x0,7
   171b0:	blt	x14,x11,17224 <_vfiprintf_r+0x9f0>
   171b4:	addi	x16,x16,8
   171b8:	addi	x11,x11,1
   171bc:	jal	x0,16cd8 <_vfiprintf_r+0x4a4>
   171c0:	addi	x12,x2,60
   171c4:	addi	x11,x26,0
   171c8:	addi	x10,x21,0
   171cc:	sw	x30,20(x2)
   171d0:	sw	x17,16(x2)
   171d4:	jal	x1,16734 <__sprint_r.part.0>
   171d8:	bne	x10,x0,17210 <_vfiprintf_r+0x9dc>
   171dc:	lw	x12,64(x2)
   171e0:	lw	x15,68(x2)
   171e4:	addi	x16,x25,0
   171e8:	addi	x11,x12,1
   171ec:	lw	x30,20(x2)
   171f0:	lw	x17,16(x2)
   171f4:	jal	x0,17158 <_vfiprintf_r+0x924>
   171f8:	lw	x15,68(x2)
   171fc:	beq	x15,x0,17210 <_vfiprintf_r+0x9dc>
   17200:	addi	x12,x2,60
   17204:	addi	x11,x26,0
   17208:	addi	x10,x21,0
   1720c:	jal	x1,16734 <__sprint_r.part.0>
   17210:	lhu	x15,12(x26)
   17214:	andi	x15,x15,64
   17218:	bne	x15,x0,176b8 <_vfiprintf_r+0xe84>
   1721c:	lw	x10,4(x2)
   17220:	jal	x0,16a3c <_vfiprintf_r+0x208>
   17224:	bne	x15,x0,1756c <_vfiprintf_r+0xd38>
   17228:	addi	x14,x0,1
   1722c:	addi	x15,x20,0
   17230:	sw	x27,112(x2)
   17234:	sw	x20,116(x2)
   17238:	sw	x20,68(x2)
   1723c:	sw	x14,64(x2)
   17240:	addi	x16,x25,0
   17244:	addi	x16,x16,8
   17248:	andi	x28,x23,4
   1724c:	beq	x28,x0,172f8 <_vfiprintf_r+0xac4>
   17250:	sub	x20,x18,x19
   17254:	bge	x0,x20,172f8 <_vfiprintf_r+0xac4>
   17258:	addi	x17,x0,16
   1725c:	bge	x17,x20,17794 <_vfiprintf_r+0xf60>
   17260:	lw	x13,64(x2)
   17264:	sw	x22,24(x2)
   17268:	addi	x23,x17,0
   1726c:	addi	x9,x0,7
   17270:	jal	x0,17288 <_vfiprintf_r+0xa54>
   17274:	addi	x12,x13,2
   17278:	addi	x16,x16,8
   1727c:	addi	x13,x14,0
   17280:	addi	x20,x20,-16
   17284:	bge	x23,x20,172bc <_vfiprintf_r+0xa88>
   17288:	addi	x15,x15,16
   1728c:	addi	x14,x13,1
   17290:	sw	x22,0(x16)
   17294:	sw	x23,4(x16)
   17298:	sw	x15,68(x2)
   1729c:	sw	x14,64(x2)
   172a0:	bge	x9,x14,17274 <_vfiprintf_r+0xa40>
   172a4:	bne	x15,x0,17328 <_vfiprintf_r+0xaf4>
   172a8:	addi	x20,x20,-16
   172ac:	addi	x12,x0,1
   172b0:	addi	x13,x0,0
   172b4:	addi	x16,x25,0
   172b8:	blt	x23,x20,17288 <_vfiprintf_r+0xa54>
   172bc:	lw	x14,24(x2)
   172c0:	add	x15,x15,x20
   172c4:	sw	x20,4(x16)
   172c8:	sw	x14,0(x16)
   172cc:	sw	x15,68(x2)
   172d0:	sw	x12,64(x2)
   172d4:	addi	x14,x0,7
   172d8:	bge	x14,x12,172f8 <_vfiprintf_r+0xac4>
   172dc:	beq	x15,x0,16d0c <_vfiprintf_r+0x4d8>
   172e0:	addi	x12,x2,60
   172e4:	addi	x11,x26,0
   172e8:	addi	x10,x21,0
   172ec:	jal	x1,16734 <__sprint_r.part.0>
   172f0:	bne	x10,x0,17210 <_vfiprintf_r+0x9dc>
   172f4:	lw	x15,68(x2)
   172f8:	bge	x18,x19,17300 <_vfiprintf_r+0xacc>
   172fc:	addi	x18,x19,0
   17300:	lw	x14,4(x2)
   17304:	add	x14,x14,x18
   17308:	sw	x14,4(x2)
   1730c:	beq	x15,x0,16d20 <_vfiprintf_r+0x4ec>
   17310:	addi	x12,x2,60
   17314:	addi	x11,x26,0
   17318:	addi	x10,x21,0
   1731c:	jal	x1,16734 <__sprint_r.part.0>
   17320:	beq	x10,x0,16d20 <_vfiprintf_r+0x4ec>
   17324:	jal	x0,17210 <_vfiprintf_r+0x9dc>
   17328:	addi	x12,x2,60
   1732c:	addi	x11,x26,0
   17330:	addi	x10,x21,0
   17334:	jal	x1,16734 <__sprint_r.part.0>
   17338:	bne	x10,x0,17210 <_vfiprintf_r+0x9dc>
   1733c:	lw	x13,64(x2)
   17340:	lw	x15,68(x2)
   17344:	addi	x16,x25,0
   17348:	addi	x12,x13,1
   1734c:	jal	x0,17280 <_vfiprintf_r+0xa4c>
   17350:	addi	x12,x2,60
   17354:	addi	x11,x26,0
   17358:	addi	x10,x21,0
   1735c:	sw	x31,20(x2)
   17360:	sw	x30,16(x2)
   17364:	jal	x1,16734 <__sprint_r.part.0>
   17368:	bne	x10,x0,17210 <_vfiprintf_r+0x9dc>
   1736c:	lw	x12,64(x2)
   17370:	lw	x15,68(x2)
   17374:	addi	x16,x25,0
   17378:	addi	x10,x12,1
   1737c:	lw	x31,20(x2)
   17380:	lw	x30,16(x2)
   17384:	jal	x0,16c58 <_vfiprintf_r+0x424>
   17388:	bne	x15,x0,17680 <_vfiprintf_r+0xe4c>
   1738c:	lbu	x14,55(x2)
   17390:	beq	x14,x0,17640 <_vfiprintf_r+0xe0c>
   17394:	addi	x15,x0,1
   17398:	addi	x14,x2,55
   1739c:	addi	x11,x15,0
   173a0:	sw	x14,112(x2)
   173a4:	sw	x15,116(x2)
   173a8:	addi	x16,x25,0
   173ac:	addi	x12,x11,0
   173b0:	addi	x16,x16,8
   173b4:	addi	x11,x11,1
   173b8:	jal	x0,16be0 <_vfiprintf_r+0x3ac>
   173bc:	addi	x15,x0,2
   173c0:	addi	x12,x2,56
   173c4:	sw	x12,112(x2)
   173c8:	sw	x15,116(x2)
   173cc:	addi	x11,x14,0
   173d0:	addi	x16,x25,0
   173d4:	addi	x12,x11,0
   173d8:	addi	x16,x16,8
   173dc:	addi	x11,x11,1
   173e0:	jal	x0,17128 <_vfiprintf_r+0x8f4>
   173e4:	sb	x0,55(x2)
   173e8:	blt	x13,x0,175a8 <_vfiprintf_r+0xd74>
   173ec:	andi	x23,x23,-129
   173f0:	beq	x15,x0,16ae8 <_vfiprintf_r+0x2b4>
   173f4:	addi	x12,x0,0
   173f8:	lw	x11,28(x2)
   173fc:	addi	x27,x25,0
   17400:	andi	x14,x15,15
   17404:	add	x14,x11,x14
   17408:	lbu	x14,0(x14)
   1740c:	addi	x27,x27,-1
   17410:	srli	x15,x15,0x4
   17414:	sb	x14,0(x27)
   17418:	bne	x15,x0,17400 <_vfiprintf_r+0xbcc>
   1741c:	sub	x20,x25,x27
   17420:	jal	x0,16afc <_vfiprintf_r+0x2c8>
   17424:	lw	x15,8(x2)
   17428:	sb	x0,55(x2)
   1742c:	addi	x14,x15,4
   17430:	lw	x15,0(x15)
   17434:	bge	x13,x0,16eb0 <_vfiprintf_r+0x67c>
   17438:	sw	x14,8(x2)
   1743c:	addi	x12,x0,0
   17440:	bne	x15,x0,16da8 <_vfiprintf_r+0x574>
   17444:	addi	x15,x0,1
   17448:	addi	x14,x0,1
   1744c:	beq	x15,x14,16ec4 <_vfiprintf_r+0x690>
   17450:	addi	x14,x0,2
   17454:	beq	x15,x14,174e8 <_vfiprintf_r+0xcb4>
   17458:	addi	x15,x0,0
   1745c:	jal	x0,16e14 <_vfiprintf_r+0x5e0>
   17460:	addi	x12,x2,60
   17464:	addi	x11,x26,0
   17468:	addi	x10,x21,0
   1746c:	jal	x1,16734 <__sprint_r.part.0>
   17470:	bne	x10,x0,17210 <_vfiprintf_r+0x9dc>
   17474:	lw	x15,68(x2)
   17478:	addi	x16,x25,0
   1747c:	jal	x0,17248 <_vfiprintf_r+0xa14>
   17480:	andi	x15,x23,64
   17484:	sb	x0,55(x2)
   17488:	beq	x15,x0,175fc <_vfiprintf_r+0xdc8>
   1748c:	lw	x15,8(x2)
   17490:	addi	x14,x15,4
   17494:	lhu	x15,0(x15)
   17498:	bge	x13,x0,16dfc <_vfiprintf_r+0x5c8>
   1749c:	sw	x14,8(x2)
   174a0:	addi	x12,x0,0
   174a4:	beq	x15,x0,17448 <_vfiprintf_r+0xc14>
   174a8:	addi	x12,x0,0
   174ac:	jal	x0,16e14 <_vfiprintf_r+0x5e0>
   174b0:	andi	x15,x23,64
   174b4:	lw	x14,8(x2)
   174b8:	beq	x15,x0,17670 <_vfiprintf_r+0xe3c>
   174bc:	lh	x15,0(x14)
   174c0:	addi	x14,x14,4
   174c4:	sw	x14,8(x2)
   174c8:	jal	x0,16d94 <_vfiprintf_r+0x560>
   174cc:	addi	x12,x2,60
   174d0:	addi	x11,x26,0
   174d4:	addi	x10,x21,0
   174d8:	jal	x1,16734 <__sprint_r.part.0>
   174dc:	bne	x10,x0,17210 <_vfiprintf_r+0x9dc>
   174e0:	addi	x16,x25,0
   174e4:	jal	x0,16984 <_vfiprintf_r+0x150>
   174e8:	addi	x15,x0,0
   174ec:	jal	x0,173f8 <_vfiprintf_r+0xbc4>
   174f0:	addi	x12,x2,60
   174f4:	addi	x11,x26,0
   174f8:	addi	x10,x21,0
   174fc:	sw	x13,16(x2)
   17500:	jal	x1,16734 <__sprint_r.part.0>
   17504:	bne	x10,x0,17210 <_vfiprintf_r+0x9dc>
   17508:	lw	x12,64(x2)
   1750c:	lw	x15,68(x2)
   17510:	addi	x16,x25,0
   17514:	addi	x11,x12,1
   17518:	lw	x13,16(x2)
   1751c:	jal	x0,17128 <_vfiprintf_r+0x8f4>
   17520:	addi	x12,x2,60
   17524:	addi	x11,x26,0
   17528:	addi	x10,x21,0
   1752c:	sw	x31,20(x2)
   17530:	sw	x13,16(x2)
   17534:	jal	x1,16734 <__sprint_r.part.0>
   17538:	bne	x10,x0,17210 <_vfiprintf_r+0x9dc>
   1753c:	lw	x12,64(x2)
   17540:	lw	x15,68(x2)
   17544:	addi	x16,x25,0
   17548:	addi	x11,x12,1
   1754c:	lw	x31,20(x2)
   17550:	lw	x13,16(x2)
   17554:	jal	x0,16be0 <_vfiprintf_r+0x3ac>
   17558:	bne	x15,x0,176f8 <_vfiprintf_r+0xec4>
   1755c:	addi	x11,x0,1
   17560:	addi	x12,x0,0
   17564:	addi	x16,x25,0
   17568:	jal	x0,17130 <_vfiprintf_r+0x8fc>
   1756c:	addi	x12,x2,60
   17570:	addi	x11,x26,0
   17574:	addi	x10,x21,0
   17578:	jal	x1,16734 <__sprint_r.part.0>
   1757c:	bne	x10,x0,17210 <_vfiprintf_r+0x9dc>
   17580:	lw	x11,64(x2)
   17584:	lw	x15,68(x2)
   17588:	addi	x16,x25,0
   1758c:	addi	x11,x11,1
   17590:	jal	x0,16cd8 <_vfiprintf_r+0x4a4>
   17594:	lui	x27,0x1b
   17598:	sw	x14,8(x2)
   1759c:	addi	x14,x27,500 # 1b1f4 <__clz_tab+0x144>
   175a0:	addi	x23,x12,0
   175a4:	sw	x14,28(x2)
   175a8:	bne	x15,x0,173f4 <_vfiprintf_r+0xbc0>
   175ac:	addi	x12,x0,0
   175b0:	addi	x15,x0,2
   175b4:	jal	x0,17448 <_vfiprintf_r+0xc14>
   175b8:	lui	x27,0x1b
   175bc:	addi	x14,x27,500 # 1b1f4 <__clz_tab+0x144>
   175c0:	addi	x12,x0,0
   175c4:	sw	x14,28(x2)
   175c8:	jal	x0,173f8 <_vfiprintf_r+0xbc4>
   175cc:	addi	x12,x0,48
   175d0:	sb	x14,57(x2)
   175d4:	sb	x12,56(x2)
   175d8:	sb	x0,55(x2)
   175dc:	ori	x14,x23,2
   175e0:	blt	x13,x0,17738 <_vfiprintf_r+0xf04>
   175e4:	andi	x28,x23,-129
   175e8:	ori	x23,x28,2
   175ec:	addi	x12,x0,0
   175f0:	jal	x0,173f8 <_vfiprintf_r+0xbc4>
   175f4:	addi	x18,x8,0
   175f8:	jal	x0,16990 <_vfiprintf_r+0x15c>
   175fc:	lw	x15,8(x2)
   17600:	addi	x14,x15,4
   17604:	lw	x15,0(x15)
   17608:	bge	x13,x0,16dfc <_vfiprintf_r+0x5c8>
   1760c:	jal	x0,1749c <_vfiprintf_r+0xc68>
   17610:	lw	x15,8(x2)
   17614:	addi	x14,x15,4
   17618:	lw	x15,0(x15)
   1761c:	bge	x13,x0,16eb0 <_vfiprintf_r+0x67c>
   17620:	jal	x0,17438 <_vfiprintf_r+0xc04>
   17624:	addi	x14,x0,45
   17628:	sb	x14,55(x2)
   1762c:	sub	x15,x0,x15
   17630:	blt	x13,x0,17784 <_vfiprintf_r+0xf50>
   17634:	andi	x23,x23,-129
   17638:	addi	x12,x0,45
   1763c:	jal	x0,16da8 <_vfiprintf_r+0x574>
   17640:	beq	x31,x0,176c8 <_vfiprintf_r+0xe94>
   17644:	addi	x15,x0,2
   17648:	addi	x14,x2,56
   1764c:	sw	x14,112(x2)
   17650:	sw	x15,116(x2)
   17654:	addi	x11,x0,1
   17658:	addi	x16,x25,0
   1765c:	jal	x0,173d4 <_vfiprintf_r+0xba0>
   17660:	lw	x15,0(x12)
   17664:	addi	x12,x12,4
   17668:	sw	x12,8(x2)
   1766c:	jal	x0,16fb8 <_vfiprintf_r+0x784>
   17670:	lw	x15,0(x14)
   17674:	addi	x14,x14,4
   17678:	sw	x14,8(x2)
   1767c:	jal	x0,16d94 <_vfiprintf_r+0x560>
   17680:	addi	x12,x2,60
   17684:	addi	x11,x26,0
   17688:	addi	x10,x21,0
   1768c:	sw	x31,20(x2)
   17690:	sw	x13,16(x2)
   17694:	jal	x1,16734 <__sprint_r.part.0>
   17698:	bne	x10,x0,17210 <_vfiprintf_r+0x9dc>
   1769c:	lw	x12,64(x2)
   176a0:	lw	x15,68(x2)
   176a4:	addi	x16,x25,0
   176a8:	addi	x11,x12,1
   176ac:	lw	x31,20(x2)
   176b0:	lw	x13,16(x2)
   176b4:	jal	x0,170e8 <_vfiprintf_r+0x8b4>
   176b8:	addi	x10,x0,-1
   176bc:	jal	x0,16a3c <_vfiprintf_r+0x208>
   176c0:	addi	x16,x25,0
   176c4:	jal	x0,17258 <_vfiprintf_r+0xa24>
   176c8:	addi	x12,x0,0
   176cc:	addi	x11,x0,1
   176d0:	addi	x16,x25,0
   176d4:	jal	x0,17128 <_vfiprintf_r+0x8f4>
   176d8:	addi	x10,x27,0
   176dc:	jal	x1,166a4 <strlen>
   176e0:	addi	x20,x10,0
   176e4:	lbu	x12,55(x2)
   176e8:	sw	x9,8(x2)
   176ec:	addi	x13,x0,0
   176f0:	lw	x16,16(x2)
   176f4:	jal	x0,16afc <_vfiprintf_r+0x2c8>
   176f8:	addi	x12,x2,60
   176fc:	addi	x11,x26,0
   17700:	addi	x10,x21,0
   17704:	sw	x13,16(x2)
   17708:	jal	x1,16734 <__sprint_r.part.0>
   1770c:	bne	x10,x0,17210 <_vfiprintf_r+0x9dc>
   17710:	lw	x12,64(x2)
   17714:	lw	x15,68(x2)
   17718:	addi	x16,x25,0
   1771c:	addi	x11,x12,1
   17720:	lw	x13,16(x2)
   17724:	jal	x0,17130 <_vfiprintf_r+0x8fc>
   17728:	lw	x12,64(x2)
   1772c:	sw	x22,24(x2)
   17730:	addi	x12,x12,1
   17734:	jal	x0,16bb0 <_vfiprintf_r+0x37c>
   17738:	addi	x12,x0,0
   1773c:	addi	x11,x0,2
   17740:	addi	x10,x0,1
   17744:	beq	x11,x10,177c4 <_vfiprintf_r+0xf90>
   17748:	addi	x10,x0,2
   1774c:	bne	x11,x10,177cc <_vfiprintf_r+0xf98>
   17750:	addi	x23,x14,0
   17754:	jal	x0,173f8 <_vfiprintf_r+0xbc4>
   17758:	addi	x15,x0,6
   1775c:	bgeu	x15,x13,17764 <_vfiprintf_r+0xf30>
   17760:	addi	x13,x15,0
   17764:	addi	x20,x13,0
   17768:	addi	x19,x13,0
   1776c:	blt	x13,x0,177d4 <_vfiprintf_r+0xfa0>
   17770:	lui	x29,0x1b
   17774:	sw	x9,8(x2)
   17778:	addi	x27,x29,520 # 1b208 <__clz_tab+0x158>
   1777c:	addi	x13,x0,0
   17780:	jal	x0,16b10 <_vfiprintf_r+0x2dc>
   17784:	addi	x14,x23,0
   17788:	addi	x12,x0,45
   1778c:	addi	x11,x0,1
   17790:	jal	x0,17740 <_vfiprintf_r+0xf0c>
   17794:	lw	x12,64(x2)
   17798:	sw	x22,24(x2)
   1779c:	addi	x12,x12,1
   177a0:	jal	x0,172bc <_vfiprintf_r+0xa88>
   177a4:	addi	x10,x11,0
   177a8:	sw	x24,24(x2)
   177ac:	jal	x0,16ca4 <_vfiprintf_r+0x470>
   177b0:	addi	x20,x13,0
   177b4:	lbu	x12,55(x2)
   177b8:	sw	x9,8(x2)
   177bc:	addi	x13,x0,0
   177c0:	jal	x0,16afc <_vfiprintf_r+0x2c8>
   177c4:	addi	x23,x14,0
   177c8:	jal	x0,16da8 <_vfiprintf_r+0x574>
   177cc:	addi	x23,x14,0
   177d0:	jal	x0,16e14 <_vfiprintf_r+0x5e0>
   177d4:	addi	x19,x0,0
   177d8:	jal	x0,17770 <_vfiprintf_r+0xf3c>
   177dc:	lw	x15,8(x2)
   177e0:	lw	x13,0(x15)
   177e4:	addi	x15,x15,4
   177e8:	sw	x15,8(x2)
   177ec:	bge	x13,x0,169f8 <_vfiprintf_r+0x1c4>
   177f0:	addi	x13,x0,-1
   177f4:	addi	x9,x8,0
   177f8:	jal	x0,169c0 <_vfiprintf_r+0x18c>
   177fc:	sb	x17,55(x2)
   17800:	jal	x0,16ff0 <_vfiprintf_r+0x7bc>
   17804:	sb	x17,55(x2)
   17808:	jal	x0,16f94 <_vfiprintf_r+0x760>
   1780c:	sb	x17,55(x2)
   17810:	jal	x0,16e88 <_vfiprintf_r+0x654>
   17814:	sb	x17,55(x2)
   17818:	jal	x0,16d78 <_vfiprintf_r+0x544>
   1781c:	sb	x17,55(x2)
   17820:	jal	x0,17068 <_vfiprintf_r+0x834>
   17824:	sb	x17,55(x2)
   17828:	jal	x0,16ddc <_vfiprintf_r+0x5a8>
   1782c:	sb	x17,55(x2)
   17830:	jal	x0,16e58 <_vfiprintf_r+0x624>
   17834:	andi	x15,x23,1
   17838:	addi	x12,x13,0
   1783c:	beq	x15,x0,17854 <_vfiprintf_r+0x1020>
   17840:	addi	x15,x0,48
   17844:	sb	x15,111(x2)
   17848:	lw	x20,32(x2)
   1784c:	addi	x27,x2,111
   17850:	jal	x0,16afc <_vfiprintf_r+0x2c8>
   17854:	addi	x20,x0,0
   17858:	addi	x27,x25,0
   1785c:	jal	x0,16afc <_vfiprintf_r+0x2c8>

00017860 <vfiprintf>:
   17860:	addi	x13,x12,0
   17864:	addi	x12,x11,0
   17868:	addi	x11,x10,0
   1786c:	lw	x10,-2040(x3) # 1cdb8 <_impure_ptr>
   17870:	jal	x0,16834 <_vfiprintf_r>

00017874 <__sbprintf>:
   17874:	lhu	x15,12(x11)
   17878:	lw	x28,104(x11)
   1787c:	lhu	x6,14(x11)
   17880:	lw	x17,28(x11)
   17884:	lw	x16,36(x11)
   17888:	addi	x2,x2,-1152
   1788c:	andi	x15,x15,-3
   17890:	addi	x14,x0,1024
   17894:	sw	x8,1144(x2)
   17898:	sh	x15,12(x2)
   1789c:	addi	x8,x11,0
   178a0:	addi	x15,x2,112
   178a4:	addi	x11,x2,0
   178a8:	sw	x9,1140(x2)
   178ac:	sw	x18,1136(x2)
   178b0:	sw	x1,1148(x2)
   178b4:	addi	x18,x10,0
   178b8:	sw	x28,104(x2)
   178bc:	sh	x6,14(x2)
   178c0:	sw	x17,28(x2)
   178c4:	sw	x16,36(x2)
   178c8:	sw	x15,0(x2)
   178cc:	sw	x15,16(x2)
   178d0:	sw	x14,8(x2)
   178d4:	sw	x14,20(x2)
   178d8:	sw	x0,24(x2)
   178dc:	jal	x1,16834 <_vfiprintf_r>
   178e0:	addi	x9,x10,0
   178e4:	blt	x10,x0,178f8 <__sbprintf+0x84>
   178e8:	addi	x11,x2,0
   178ec:	addi	x10,x18,0
   178f0:	jal	x1,13e04 <_fflush_r>
   178f4:	bne	x10,x0,1792c <__sbprintf+0xb8>
   178f8:	lhu	x15,12(x2)
   178fc:	andi	x15,x15,64
   17900:	beq	x15,x0,17910 <__sbprintf+0x9c>
   17904:	lhu	x15,12(x8)
   17908:	ori	x15,x15,64
   1790c:	sh	x15,12(x8)
   17910:	lw	x1,1148(x2)
   17914:	addi	x10,x9,0
   17918:	lw	x8,1144(x2)
   1791c:	lw	x9,1140(x2)
   17920:	lw	x18,1136(x2)
   17924:	addi	x2,x2,1152
   17928:	jalr	x0,x1,0
   1792c:	addi	x9,x0,-1
   17930:	jal	x0,178f8 <__sbprintf+0x84>

00017934 <_calloc_r>:
   17934:	mul	x11,x11,x12
   17938:	addi	x2,x2,-16
   1793c:	sw	x1,12(x2)
   17940:	sw	x8,8(x2)
   17944:	jal	x1,1499c <_malloc_r>
   17948:	beq	x10,x0,179e0 <_calloc_r+0xac>
   1794c:	lw	x12,-4(x10)
   17950:	addi	x14,x0,36
   17954:	addi	x8,x10,0
   17958:	andi	x12,x12,-4
   1795c:	addi	x12,x12,-4
   17960:	bltu	x14,x12,179bc <_calloc_r+0x88>
   17964:	addi	x13,x0,19
   17968:	addi	x15,x10,0
   1796c:	bgeu	x13,x12,1799c <_calloc_r+0x68>
   17970:	sw	x0,0(x10)
   17974:	sw	x0,4(x10)
   17978:	addi	x15,x0,27
   1797c:	bgeu	x15,x12,179d8 <_calloc_r+0xa4>
   17980:	sw	x0,8(x10)
   17984:	sw	x0,12(x10)
   17988:	addi	x15,x10,16
   1798c:	bne	x12,x14,1799c <_calloc_r+0x68>
   17990:	sw	x0,16(x10)
   17994:	addi	x15,x10,24
   17998:	sw	x0,20(x10)
   1799c:	sw	x0,0(x15)
   179a0:	sw	x0,4(x15)
   179a4:	sw	x0,8(x15)
   179a8:	addi	x10,x8,0
   179ac:	lw	x1,12(x2)
   179b0:	lw	x8,8(x2)
   179b4:	addi	x2,x2,16
   179b8:	jalr	x0,x1,0
   179bc:	addi	x11,x0,0
   179c0:	jal	x1,152b8 <memset>
   179c4:	lw	x1,12(x2)
   179c8:	addi	x10,x8,0
   179cc:	lw	x8,8(x2)
   179d0:	addi	x2,x2,16
   179d4:	jalr	x0,x1,0
   179d8:	addi	x15,x10,8
   179dc:	jal	x0,1799c <_calloc_r+0x68>
   179e0:	addi	x10,x0,0
   179e4:	jal	x0,179ac <_calloc_r+0x78>

000179e8 <_fclose_r>:
   179e8:	beq	x11,x0,17ad0 <_fclose_r+0xe8>
   179ec:	addi	x2,x2,-16
   179f0:	sw	x8,8(x2)
   179f4:	sw	x9,4(x2)
   179f8:	sw	x1,12(x2)
   179fc:	sw	x18,0(x2)
   17a00:	addi	x9,x10,0
   17a04:	addi	x8,x11,0
   17a08:	beq	x10,x0,17a14 <_fclose_r+0x2c>
   17a0c:	lw	x15,56(x10)
   17a10:	beq	x15,x0,17ab0 <_fclose_r+0xc8>
   17a14:	lh	x15,12(x8)
   17a18:	addi	x10,x0,0
   17a1c:	bne	x15,x0,17a38 <_fclose_r+0x50>
   17a20:	lw	x1,12(x2)
   17a24:	lw	x8,8(x2)
   17a28:	lw	x9,4(x2)
   17a2c:	lw	x18,0(x2)
   17a30:	addi	x2,x2,16
   17a34:	jalr	x0,x1,0
   17a38:	addi	x11,x8,0
   17a3c:	addi	x10,x9,0
   17a40:	jal	x1,13b74 <__sflush_r>
   17a44:	lw	x15,44(x8)
   17a48:	addi	x18,x10,0
   17a4c:	beq	x15,x0,17a60 <_fclose_r+0x78>
   17a50:	lw	x11,28(x8)
   17a54:	addi	x10,x9,0
   17a58:	jalr	x1,x15,0
   17a5c:	blt	x10,x0,17ab8 <_fclose_r+0xd0>
   17a60:	lhu	x15,12(x8)
   17a64:	andi	x15,x15,128
   17a68:	bne	x15,x0,17ac0 <_fclose_r+0xd8>
   17a6c:	lw	x11,48(x8)
   17a70:	beq	x11,x0,17a88 <_fclose_r+0xa0>
   17a74:	addi	x15,x8,64
   17a78:	beq	x11,x15,17a84 <_fclose_r+0x9c>
   17a7c:	addi	x10,x9,0
   17a80:	jal	x1,142f4 <_free_r>
   17a84:	sw	x0,48(x8)
   17a88:	lw	x11,68(x8)
   17a8c:	beq	x11,x0,17a9c <_fclose_r+0xb4>
   17a90:	addi	x10,x9,0
   17a94:	jal	x1,142f4 <_free_r>
   17a98:	sw	x0,68(x8)
   17a9c:	jal	x1,141c4 <__sfp_lock_acquire>
   17aa0:	sh	x0,12(x8)
   17aa4:	jal	x1,141c8 <__sfp_lock_release>
   17aa8:	addi	x10,x18,0
   17aac:	jal	x0,17a20 <_fclose_r+0x38>
   17ab0:	jal	x1,141b4 <__sinit>
   17ab4:	jal	x0,17a14 <_fclose_r+0x2c>
   17ab8:	addi	x18,x0,-1
   17abc:	jal	x0,17a60 <_fclose_r+0x78>
   17ac0:	lw	x11,16(x8)
   17ac4:	addi	x10,x9,0
   17ac8:	jal	x1,142f4 <_free_r>
   17acc:	jal	x0,17a6c <_fclose_r+0x84>
   17ad0:	addi	x10,x0,0
   17ad4:	jalr	x0,x1,0

00017ad8 <fclose>:
   17ad8:	addi	x11,x10,0
   17adc:	lw	x10,-2040(x3) # 1cdb8 <_impure_ptr>
   17ae0:	jal	x0,179e8 <_fclose_r>

00017ae4 <__fputwc>:
   17ae4:	addi	x2,x2,-48
   17ae8:	sw	x8,40(x2)
   17aec:	sw	x20,24(x2)
   17af0:	sw	x21,20(x2)
   17af4:	sw	x1,44(x2)
   17af8:	sw	x9,36(x2)
   17afc:	sw	x18,32(x2)
   17b00:	sw	x19,28(x2)
   17b04:	sw	x22,16(x2)
   17b08:	addi	x21,x10,0
   17b0c:	addi	x20,x11,0
   17b10:	addi	x8,x12,0
   17b14:	jal	x1,147c8 <__locale_mb_cur_max>
   17b18:	addi	x15,x0,1
   17b1c:	beq	x10,x15,17c1c <__fputwc+0x138>
   17b20:	addi	x9,x2,12
   17b24:	addi	x13,x8,96
   17b28:	addi	x12,x20,0
   17b2c:	addi	x11,x9,0
   17b30:	addi	x10,x21,0
   17b34:	jal	x1,1898c <_wcrtomb_r>
   17b38:	addi	x15,x0,-1
   17b3c:	addi	x19,x10,0
   17b40:	beq	x10,x15,17bd0 <__fputwc+0xec>
   17b44:	beq	x10,x0,17c3c <__fputwc+0x158>
   17b48:	lbu	x11,12(x2)
   17b4c:	addi	x18,x0,0
   17b50:	addi	x22,x0,10
   17b54:	jal	x0,17b7c <__fputwc+0x98>
   17b58:	lw	x15,0(x8)
   17b5c:	sb	x11,0(x15)
   17b60:	lw	x15,0(x8)
   17b64:	addi	x15,x15,1
   17b68:	sw	x15,0(x8)
   17b6c:	addi	x18,x18,1
   17b70:	addi	x9,x9,1
   17b74:	bgeu	x18,x19,17c3c <__fputwc+0x158>
   17b78:	lbu	x11,0(x9)
   17b7c:	lw	x15,8(x8)
   17b80:	addi	x15,x15,-1
   17b84:	sw	x15,8(x8)
   17b88:	bge	x15,x0,17b58 <__fputwc+0x74>
   17b8c:	lw	x14,24(x8)
   17b90:	blt	x15,x14,17c04 <__fputwc+0x120>
   17b94:	lw	x15,0(x8)
   17b98:	sb	x11,0(x15)
   17b9c:	lw	x15,0(x8)
   17ba0:	lbu	x14,0(x15)
   17ba4:	addi	x15,x15,1
   17ba8:	bne	x14,x22,17b68 <__fputwc+0x84>
   17bac:	addi	x12,x8,0
   17bb0:	addi	x11,x22,0
   17bb4:	addi	x10,x21,0
   17bb8:	jal	x1,1881c <__swbuf_r>
   17bbc:	addi	x10,x10,1
   17bc0:	sltiu	x10,x10,1
   17bc4:	beq	x10,x0,17b6c <__fputwc+0x88>
   17bc8:	addi	x10,x0,-1
   17bcc:	jal	x0,17bdc <__fputwc+0xf8>
   17bd0:	lhu	x15,12(x8)
   17bd4:	ori	x15,x15,64
   17bd8:	sh	x15,12(x8)
   17bdc:	lw	x1,44(x2)
   17be0:	lw	x8,40(x2)
   17be4:	lw	x9,36(x2)
   17be8:	lw	x18,32(x2)
   17bec:	lw	x19,28(x2)
   17bf0:	lw	x20,24(x2)
   17bf4:	lw	x21,20(x2)
   17bf8:	lw	x22,16(x2)
   17bfc:	addi	x2,x2,48
   17c00:	jalr	x0,x1,0
   17c04:	addi	x12,x8,0
   17c08:	addi	x10,x21,0
   17c0c:	jal	x1,1881c <__swbuf_r>
   17c10:	addi	x10,x10,1
   17c14:	sltiu	x10,x10,1
   17c18:	jal	x0,17bc4 <__fputwc+0xe0>
   17c1c:	addi	x15,x20,-1
   17c20:	addi	x14,x0,254
   17c24:	bltu	x14,x15,17b20 <__fputwc+0x3c>
   17c28:	andi	x11,x20,255
   17c2c:	sb	x11,12(x2)
   17c30:	addi	x19,x10,0
   17c34:	addi	x9,x2,12
   17c38:	jal	x0,17b4c <__fputwc+0x68>
   17c3c:	addi	x10,x20,0
   17c40:	jal	x0,17bdc <__fputwc+0xf8>

00017c44 <_fputwc_r>:
   17c44:	lh	x15,12(x12)
   17c48:	lui	x14,0x2
   17c4c:	slli	x13,x15,0x12
   17c50:	blt	x13,x0,17c68 <_fputwc_r+0x24>
   17c54:	lw	x13,104(x12)
   17c58:	or	x15,x15,x14
   17c5c:	sh	x15,12(x12)
   17c60:	or	x14,x13,x14
   17c64:	sw	x14,104(x12)
   17c68:	jal	x0,17ae4 <__fputwc>

00017c6c <fputwc>:
   17c6c:	addi	x2,x2,-32
   17c70:	sw	x8,24(x2)
   17c74:	lw	x8,-2040(x3) # 1cdb8 <_impure_ptr>
   17c78:	sw	x9,20(x2)
   17c7c:	sw	x1,28(x2)
   17c80:	addi	x9,x10,0
   17c84:	addi	x12,x11,0
   17c88:	beq	x8,x0,17c94 <fputwc+0x28>
   17c8c:	lw	x15,56(x8)
   17c90:	beq	x15,x0,17cd4 <fputwc+0x68>
   17c94:	lh	x15,12(x12)
   17c98:	lui	x14,0x2
   17c9c:	slli	x13,x15,0x12
   17ca0:	blt	x13,x0,17cb8 <fputwc+0x4c>
   17ca4:	lw	x13,104(x12)
   17ca8:	or	x15,x15,x14
   17cac:	sh	x15,12(x12)
   17cb0:	or	x14,x13,x14
   17cb4:	sw	x14,104(x12)
   17cb8:	addi	x11,x9,0
   17cbc:	addi	x10,x8,0
   17cc0:	lw	x1,28(x2)
   17cc4:	lw	x8,24(x2)
   17cc8:	lw	x9,20(x2)
   17ccc:	addi	x2,x2,32
   17cd0:	jal	x0,17ae4 <__fputwc>
   17cd4:	addi	x10,x8,0
   17cd8:	sw	x11,12(x2)
   17cdc:	jal	x1,141b4 <__sinit>
   17ce0:	lw	x12,12(x2)
   17ce4:	jal	x0,17c94 <fputwc+0x28>

00017ce8 <__sfvwrite_r>:
   17ce8:	lw	x15,8(x12)
   17cec:	beq	x15,x0,17ea8 <__sfvwrite_r+0x1c0>
   17cf0:	lhu	x14,12(x11)
   17cf4:	addi	x2,x2,-48
   17cf8:	sw	x8,40(x2)
   17cfc:	sw	x20,24(x2)
   17d00:	sw	x21,20(x2)
   17d04:	sw	x1,44(x2)
   17d08:	sw	x9,36(x2)
   17d0c:	sw	x18,32(x2)
   17d10:	sw	x19,28(x2)
   17d14:	sw	x22,16(x2)
   17d18:	sw	x23,12(x2)
   17d1c:	sw	x24,8(x2)
   17d20:	sw	x25,4(x2)
   17d24:	sw	x26,0(x2)
   17d28:	andi	x15,x14,8
   17d2c:	addi	x8,x11,0
   17d30:	addi	x21,x10,0
   17d34:	addi	x20,x12,0
   17d38:	beq	x15,x0,17de0 <__sfvwrite_r+0xf8>
   17d3c:	lw	x15,16(x11)
   17d40:	beq	x15,x0,17de0 <__sfvwrite_r+0xf8>
   17d44:	andi	x15,x14,2
   17d48:	lw	x9,0(x20)
   17d4c:	beq	x15,x0,17e04 <__sfvwrite_r+0x11c>
   17d50:	lui	x22,0x80000
   17d54:	addi	x19,x0,0
   17d58:	addi	x18,x0,0
   17d5c:	xori	x22,x22,-1024
   17d60:	addi	x12,x19,0
   17d64:	addi	x10,x21,0
   17d68:	beq	x18,x0,17e98 <__sfvwrite_r+0x1b0>
   17d6c:	addi	x13,x18,0
   17d70:	bgeu	x22,x18,17d78 <__sfvwrite_r+0x90>
   17d74:	addi	x13,x22,0 # 80000000 <_gp+0x7ffe2a50>
   17d78:	lw	x15,36(x8)
   17d7c:	lw	x11,28(x8)
   17d80:	jalr	x1,x15,0
   17d84:	bge	x0,x10,17ef4 <__sfvwrite_r+0x20c>
   17d88:	lw	x15,8(x20)
   17d8c:	add	x19,x19,x10
   17d90:	sub	x18,x18,x10
   17d94:	sub	x10,x15,x10
   17d98:	sw	x10,8(x20)
   17d9c:	bne	x10,x0,17d60 <__sfvwrite_r+0x78>
   17da0:	addi	x15,x0,0
   17da4:	lw	x1,44(x2)
   17da8:	addi	x10,x15,0
   17dac:	lw	x8,40(x2)
   17db0:	lw	x9,36(x2)
   17db4:	lw	x18,32(x2)
   17db8:	lw	x19,28(x2)
   17dbc:	lw	x20,24(x2)
   17dc0:	lw	x21,20(x2)
   17dc4:	lw	x22,16(x2)
   17dc8:	lw	x23,12(x2)
   17dcc:	lw	x24,8(x2)
   17dd0:	lw	x25,4(x2)
   17dd4:	lw	x26,0(x2)
   17dd8:	addi	x2,x2,48
   17ddc:	jalr	x0,x1,0
   17de0:	addi	x11,x8,0
   17de4:	addi	x10,x21,0
   17de8:	jal	x1,120ec <__swsetup_r>
   17dec:	addi	x15,x0,-1
   17df0:	bne	x10,x0,17da4 <__sfvwrite_r+0xbc>
   17df4:	lhu	x14,12(x8)
   17df8:	lw	x9,0(x20)
   17dfc:	andi	x15,x14,2
   17e00:	bne	x15,x0,17d50 <__sfvwrite_r+0x68>
   17e04:	andi	x15,x14,1
   17e08:	bne	x15,x0,17f08 <__sfvwrite_r+0x220>
   17e0c:	lui	x22,0x80000
   17e10:	addi	x23,x0,0
   17e14:	addi	x18,x0,0
   17e18:	xori	x22,x22,-1
   17e1c:	beq	x18,x0,17e88 <__sfvwrite_r+0x1a0>
   17e20:	andi	x15,x14,512
   17e24:	lw	x19,8(x8)
   17e28:	beq	x15,x0,17eb4 <__sfvwrite_r+0x1cc>
   17e2c:	bltu	x18,x19,18068 <__sfvwrite_r+0x380>
   17e30:	andi	x15,x14,1152
   17e34:	bne	x15,x0,1809c <__sfvwrite_r+0x3b4>
   17e38:	lw	x10,0(x8)
   17e3c:	addi	x24,x19,0
   17e40:	addi	x12,x24,0
   17e44:	addi	x11,x23,0
   17e48:	jal	x1,18180 <memmove>
   17e4c:	lw	x15,8(x8)
   17e50:	lw	x12,0(x8)
   17e54:	addi	x10,x18,0
   17e58:	sub	x19,x15,x19
   17e5c:	add	x12,x12,x24
   17e60:	sw	x19,8(x8)
   17e64:	sw	x12,0(x8)
   17e68:	lw	x15,8(x20)
   17e6c:	add	x23,x23,x10
   17e70:	sub	x18,x18,x10
   17e74:	sub	x19,x15,x10
   17e78:	sw	x19,8(x20)
   17e7c:	beq	x19,x0,17da0 <__sfvwrite_r+0xb8>
   17e80:	lhu	x14,12(x8)
   17e84:	bne	x18,x0,17e20 <__sfvwrite_r+0x138>
   17e88:	lw	x23,0(x9)
   17e8c:	lw	x18,4(x9)
   17e90:	addi	x9,x9,8
   17e94:	jal	x0,17e1c <__sfvwrite_r+0x134>
   17e98:	lw	x19,0(x9)
   17e9c:	lw	x18,4(x9)
   17ea0:	addi	x9,x9,8
   17ea4:	jal	x0,17d60 <__sfvwrite_r+0x78>
   17ea8:	addi	x15,x0,0
   17eac:	addi	x10,x15,0
   17eb0:	jalr	x0,x1,0
   17eb4:	lw	x10,0(x8)
   17eb8:	lw	x15,16(x8)
   17ebc:	bltu	x15,x10,17ff0 <__sfvwrite_r+0x308>
   17ec0:	lw	x15,20(x8)
   17ec4:	bltu	x18,x15,17ff0 <__sfvwrite_r+0x308>
   17ec8:	addi	x13,x18,0
   17ecc:	bgeu	x22,x18,17ed4 <__sfvwrite_r+0x1ec>
   17ed0:	addi	x13,x22,0 # 80000000 <_gp+0x7ffe2a50>
   17ed4:	div	x13,x13,x15
   17ed8:	lw	x14,36(x8)
   17edc:	lw	x11,28(x8)
   17ee0:	addi	x12,x23,0
   17ee4:	addi	x10,x21,0
   17ee8:	mul	x13,x13,x15
   17eec:	jalr	x1,x14,0 # 2000 <_ftext-0xe000>
   17ef0:	blt	x0,x10,17e68 <__sfvwrite_r+0x180>
   17ef4:	lh	x15,12(x8)
   17ef8:	ori	x15,x15,64
   17efc:	sh	x15,12(x8)
   17f00:	addi	x15,x0,-1
   17f04:	jal	x0,17da4 <__sfvwrite_r+0xbc>
   17f08:	addi	x19,x0,0
   17f0c:	addi	x25,x0,0
   17f10:	addi	x24,x0,0
   17f14:	addi	x18,x0,0
   17f18:	beq	x18,x0,17f90 <__sfvwrite_r+0x2a8>
   17f1c:	beq	x25,x0,18078 <__sfvwrite_r+0x390>
   17f20:	addi	x23,x19,0
   17f24:	bgeu	x18,x19,17f2c <__sfvwrite_r+0x244>
   17f28:	addi	x23,x18,0
   17f2c:	lw	x10,0(x8)
   17f30:	lw	x15,16(x8)
   17f34:	addi	x22,x23,0
   17f38:	lw	x13,20(x8)
   17f3c:	bgeu	x15,x10,17f4c <__sfvwrite_r+0x264>
   17f40:	lw	x26,8(x8)
   17f44:	add	x26,x13,x26
   17f48:	blt	x26,x23,17fa4 <__sfvwrite_r+0x2bc>
   17f4c:	blt	x23,x13,18040 <__sfvwrite_r+0x358>
   17f50:	lw	x15,36(x8)
   17f54:	lw	x11,28(x8)
   17f58:	addi	x12,x24,0
   17f5c:	addi	x10,x21,0
   17f60:	jalr	x1,x15,0
   17f64:	addi	x22,x10,0
   17f68:	bge	x0,x10,17ef4 <__sfvwrite_r+0x20c>
   17f6c:	sub	x19,x19,x22
   17f70:	beq	x19,x0,17fd8 <__sfvwrite_r+0x2f0>
   17f74:	lw	x15,8(x20)
   17f78:	add	x24,x24,x22
   17f7c:	sub	x18,x18,x22
   17f80:	sub	x22,x15,x22
   17f84:	sw	x22,8(x20)
   17f88:	beq	x22,x0,17da0 <__sfvwrite_r+0xb8>
   17f8c:	bne	x18,x0,17f1c <__sfvwrite_r+0x234>
   17f90:	lw	x24,0(x9)
   17f94:	lw	x18,4(x9)
   17f98:	addi	x25,x0,0
   17f9c:	addi	x9,x9,8
   17fa0:	jal	x0,17f18 <__sfvwrite_r+0x230>
   17fa4:	addi	x11,x24,0
   17fa8:	addi	x12,x26,0
   17fac:	jal	x1,18180 <memmove>
   17fb0:	lw	x15,0(x8)
   17fb4:	addi	x11,x8,0
   17fb8:	addi	x10,x21,0
   17fbc:	add	x15,x15,x26
   17fc0:	sw	x15,0(x8)
   17fc4:	jal	x1,13e04 <_fflush_r>
   17fc8:	bne	x10,x0,17ef4 <__sfvwrite_r+0x20c>
   17fcc:	addi	x22,x26,0
   17fd0:	sub	x19,x19,x22
   17fd4:	bne	x19,x0,17f74 <__sfvwrite_r+0x28c>
   17fd8:	addi	x11,x8,0
   17fdc:	addi	x10,x21,0
   17fe0:	jal	x1,13e04 <_fflush_r>
   17fe4:	bne	x10,x0,17ef4 <__sfvwrite_r+0x20c>
   17fe8:	addi	x25,x0,0
   17fec:	jal	x0,17f74 <__sfvwrite_r+0x28c>
   17ff0:	bgeu	x18,x19,17ff8 <__sfvwrite_r+0x310>
   17ff4:	addi	x19,x18,0
   17ff8:	addi	x12,x19,0
   17ffc:	addi	x11,x23,0
   18000:	jal	x1,18180 <memmove>
   18004:	lw	x15,8(x8)
   18008:	lw	x14,0(x8)
   1800c:	sub	x15,x15,x19
   18010:	add	x14,x14,x19
   18014:	sw	x15,8(x8)
   18018:	sw	x14,0(x8)
   1801c:	beq	x15,x0,18028 <__sfvwrite_r+0x340>
   18020:	addi	x10,x19,0
   18024:	jal	x0,17e68 <__sfvwrite_r+0x180>
   18028:	addi	x11,x8,0
   1802c:	addi	x10,x21,0
   18030:	jal	x1,13e04 <_fflush_r>
   18034:	bne	x10,x0,17ef4 <__sfvwrite_r+0x20c>
   18038:	addi	x10,x19,0
   1803c:	jal	x0,17e68 <__sfvwrite_r+0x180>
   18040:	addi	x12,x23,0
   18044:	addi	x11,x24,0
   18048:	jal	x1,18180 <memmove>
   1804c:	lw	x14,8(x8)
   18050:	lw	x15,0(x8)
   18054:	sub	x14,x14,x23
   18058:	add	x23,x15,x23
   1805c:	sw	x14,8(x8)
   18060:	sw	x23,0(x8)
   18064:	jal	x0,17f6c <__sfvwrite_r+0x284>
   18068:	lw	x10,0(x8)
   1806c:	addi	x19,x18,0
   18070:	addi	x24,x18,0
   18074:	jal	x0,17e40 <__sfvwrite_r+0x158>
   18078:	addi	x12,x18,0
   1807c:	addi	x11,x0,10
   18080:	addi	x10,x24,0
   18084:	jal	x1,150c0 <memchr>
   18088:	beq	x10,x0,18164 <__sfvwrite_r+0x47c>
   1808c:	addi	x10,x10,1
   18090:	sub	x19,x10,x24
   18094:	addi	x25,x0,1
   18098:	jal	x0,17f20 <__sfvwrite_r+0x238>
   1809c:	lw	x19,20(x8)
   180a0:	lw	x11,16(x8)
   180a4:	lw	x24,0(x8)
   180a8:	slli	x15,x19,0x1
   180ac:	add	x19,x15,x19
   180b0:	srli	x15,x19,0x1f
   180b4:	sub	x24,x24,x11
   180b8:	add	x19,x15,x19
   180bc:	addi	x15,x24,1
   180c0:	srai	x19,x19,0x1
   180c4:	add	x15,x15,x18
   180c8:	addi	x12,x19,0
   180cc:	bgeu	x19,x15,180d8 <__sfvwrite_r+0x3f0>
   180d0:	addi	x19,x15,0
   180d4:	addi	x12,x15,0
   180d8:	andi	x14,x14,1024
   180dc:	beq	x14,x0,18134 <__sfvwrite_r+0x44c>
   180e0:	addi	x11,x12,0
   180e4:	addi	x10,x21,0
   180e8:	jal	x1,1499c <_malloc_r>
   180ec:	addi	x25,x10,0
   180f0:	beq	x10,x0,18170 <__sfvwrite_r+0x488>
   180f4:	lw	x11,16(x8)
   180f8:	addi	x12,x24,0
   180fc:	jal	x1,15198 <memcpy>
   18100:	lhu	x15,12(x8)
   18104:	andi	x15,x15,-1153
   18108:	ori	x15,x15,128
   1810c:	sh	x15,12(x8)
   18110:	add	x10,x25,x24
   18114:	sub	x24,x19,x24
   18118:	sw	x19,20(x8)
   1811c:	sw	x24,8(x8)
   18120:	sw	x25,16(x8)
   18124:	sw	x10,0(x8)
   18128:	addi	x19,x18,0
   1812c:	addi	x24,x18,0
   18130:	jal	x0,17e40 <__sfvwrite_r+0x158>
   18134:	addi	x10,x21,0
   18138:	jal	x1,182a0 <_realloc_r>
   1813c:	addi	x25,x10,0
   18140:	bne	x10,x0,18110 <__sfvwrite_r+0x428>
   18144:	lw	x11,16(x8)
   18148:	addi	x10,x21,0
   1814c:	jal	x1,142f4 <_free_r>
   18150:	lh	x15,12(x8)
   18154:	addi	x14,x0,12
   18158:	sw	x14,0(x21)
   1815c:	andi	x15,x15,-129
   18160:	jal	x0,17ef8 <__sfvwrite_r+0x210>
   18164:	addi	x19,x18,1
   18168:	addi	x25,x0,1
   1816c:	jal	x0,17f20 <__sfvwrite_r+0x238>
   18170:	addi	x15,x0,12
   18174:	sw	x15,0(x21)
   18178:	lh	x15,12(x8)
   1817c:	jal	x0,17ef8 <__sfvwrite_r+0x210>

00018180 <memmove>:
   18180:	bgeu	x11,x10,181b0 <memmove+0x30>
   18184:	add	x14,x11,x12
   18188:	bgeu	x10,x14,181b0 <memmove+0x30>
   1818c:	add	x15,x10,x12
   18190:	sub	x11,x15,x12
   18194:	beq	x12,x0,18278 <memmove+0xf8>
   18198:	addi	x14,x14,-1
   1819c:	lbu	x13,0(x14)
   181a0:	addi	x15,x15,-1
   181a4:	sb	x13,0(x15)
   181a8:	bne	x11,x15,18198 <memmove+0x18>
   181ac:	jalr	x0,x1,0
   181b0:	addi	x17,x0,15
   181b4:	bgeu	x17,x12,1827c <memmove+0xfc>
   181b8:	or	x15,x11,x10
   181bc:	andi	x15,x15,3
   181c0:	bne	x15,x0,18288 <memmove+0x108>
   181c4:	addi	x14,x11,0
   181c8:	addi	x15,x10,0
   181cc:	addi	x13,x12,0
   181d0:	lw	x16,0(x14)
   181d4:	addi	x15,x15,16
   181d8:	addi	x14,x14,16
   181dc:	sw	x16,-16(x15)
   181e0:	lw	x16,-12(x14)
   181e4:	addi	x13,x13,-16
   181e8:	sw	x16,-12(x15)
   181ec:	lw	x16,-8(x14)
   181f0:	sw	x16,-8(x15)
   181f4:	lw	x16,-4(x14)
   181f8:	sw	x16,-4(x15)
   181fc:	bltu	x17,x13,181d0 <memmove+0x50>
   18200:	addi	x14,x12,-16
   18204:	andi	x14,x14,-16
   18208:	addi	x14,x14,16
   1820c:	andi	x28,x12,15
   18210:	addi	x6,x0,3
   18214:	add	x15,x10,x14
   18218:	add	x11,x11,x14
   1821c:	bgeu	x6,x28,18294 <memmove+0x114>
   18220:	addi	x16,x11,0
   18224:	addi	x13,x15,0
   18228:	addi	x14,x28,0
   1822c:	addi	x16,x16,4
   18230:	lw	x17,-4(x16)
   18234:	addi	x13,x13,4
   18238:	addi	x14,x14,-4
   1823c:	sw	x17,-4(x13)
   18240:	bltu	x6,x14,1822c <memmove+0xac>
   18244:	addi	x14,x28,-4
   18248:	andi	x14,x14,-4
   1824c:	addi	x14,x14,4
   18250:	andi	x12,x12,3
   18254:	add	x15,x15,x14
   18258:	add	x11,x11,x14
   1825c:	beq	x12,x0,18290 <memmove+0x110>
   18260:	add	x12,x15,x12
   18264:	addi	x11,x11,1
   18268:	lbu	x14,-1(x11)
   1826c:	addi	x15,x15,1
   18270:	sb	x14,-1(x15)
   18274:	bne	x15,x12,18264 <memmove+0xe4>
   18278:	jalr	x0,x1,0
   1827c:	addi	x15,x10,0
   18280:	bne	x12,x0,18260 <memmove+0xe0>
   18284:	jal	x0,18290 <memmove+0x110>
   18288:	addi	x15,x10,0
   1828c:	jal	x0,18260 <memmove+0xe0>
   18290:	jalr	x0,x1,0
   18294:	addi	x12,x28,0
   18298:	bne	x12,x0,18260 <memmove+0xe0>
   1829c:	jal	x0,18290 <memmove+0x110>

000182a0 <_realloc_r>:
   182a0:	addi	x2,x2,-48
   182a4:	sw	x9,36(x2)
   182a8:	sw	x1,44(x2)
   182ac:	sw	x8,40(x2)
   182b0:	sw	x18,32(x2)
   182b4:	sw	x19,28(x2)
   182b8:	sw	x20,24(x2)
   182bc:	sw	x21,20(x2)
   182c0:	sw	x22,16(x2)
   182c4:	sw	x23,12(x2)
   182c8:	sw	x24,8(x2)
   182cc:	addi	x9,x12,0
   182d0:	beq	x11,x0,184a4 <_realloc_r+0x204>
   182d4:	addi	x19,x11,0
   182d8:	addi	x18,x10,0
   182dc:	jal	x1,15394 <__malloc_lock>
   182e0:	lw	x15,-4(x19)
   182e4:	addi	x8,x9,11
   182e8:	addi	x14,x0,22
   182ec:	addi	x21,x19,-8
   182f0:	andi	x20,x15,-4
   182f4:	bgeu	x14,x8,183b8 <_realloc_r+0x118>
   182f8:	andi	x8,x8,-8
   182fc:	addi	x14,x8,0
   18300:	blt	x8,x0,18458 <_realloc_r+0x1b8>
   18304:	bltu	x8,x9,18458 <_realloc_r+0x1b8>
   18308:	bge	x20,x14,183c4 <_realloc_r+0x124>
   1830c:	lui	x22,0x1d
   18310:	addi	x22,x22,-1624 # 1c9a8 <__malloc_av_>
   18314:	lw	x13,8(x22)
   18318:	add	x12,x21,x20
   1831c:	beq	x12,x13,1861c <_realloc_r+0x37c>
   18320:	lw	x13,4(x12)
   18324:	andi	x11,x13,-2
   18328:	add	x11,x12,x11
   1832c:	lw	x11,4(x11)
   18330:	andi	x11,x11,1
   18334:	beq	x11,x0,18430 <_realloc_r+0x190>
   18338:	andi	x15,x15,1
   1833c:	beq	x15,x0,185a0 <_realloc_r+0x300>
   18340:	addi	x11,x9,0
   18344:	addi	x10,x18,0
   18348:	jal	x1,1499c <_malloc_r>
   1834c:	addi	x9,x10,0
   18350:	beq	x10,x0,187f0 <_realloc_r+0x550>
   18354:	lw	x15,-4(x19)
   18358:	addi	x14,x10,-8
   1835c:	andi	x15,x15,-2
   18360:	add	x15,x21,x15
   18364:	beq	x14,x15,18784 <_realloc_r+0x4e4>
   18368:	addi	x12,x20,-4
   1836c:	addi	x15,x0,36
   18370:	bltu	x15,x12,18740 <_realloc_r+0x4a0>
   18374:	addi	x14,x0,19
   18378:	bltu	x14,x12,186e8 <_realloc_r+0x448>
   1837c:	addi	x15,x10,0
   18380:	addi	x14,x19,0
   18384:	lw	x13,0(x14)
   18388:	sw	x13,0(x15)
   1838c:	lw	x13,4(x14)
   18390:	sw	x13,4(x15)
   18394:	lw	x14,8(x14)
   18398:	sw	x14,8(x15)
   1839c:	addi	x11,x19,0
   183a0:	addi	x10,x18,0
   183a4:	jal	x1,142f4 <_free_r>
   183a8:	addi	x10,x18,0
   183ac:	jal	x1,15398 <__malloc_unlock>
   183b0:	addi	x10,x9,0
   183b4:	jal	x0,18400 <_realloc_r+0x160>
   183b8:	addi	x14,x0,16
   183bc:	addi	x8,x14,0
   183c0:	jal	x0,18304 <_realloc_r+0x64>
   183c4:	addi	x9,x19,0
   183c8:	sub	x15,x20,x8
   183cc:	addi	x14,x0,15
   183d0:	bltu	x14,x15,18468 <_realloc_r+0x1c8>
   183d4:	lw	x15,4(x21)
   183d8:	add	x14,x21,x20
   183dc:	andi	x15,x15,1
   183e0:	or	x12,x15,x20
   183e4:	sw	x12,4(x21)
   183e8:	lw	x15,4(x14)
   183ec:	ori	x15,x15,1
   183f0:	sw	x15,4(x14)
   183f4:	addi	x10,x18,0
   183f8:	jal	x1,15398 <__malloc_unlock>
   183fc:	addi	x10,x9,0
   18400:	lw	x1,44(x2)
   18404:	lw	x8,40(x2)
   18408:	lw	x9,36(x2)
   1840c:	lw	x18,32(x2)
   18410:	lw	x19,28(x2)
   18414:	lw	x20,24(x2)
   18418:	lw	x21,20(x2)
